
sys.bin:     file format elf32-littlemips


Disassembly of section seg_reset:

bfc00000 <reset>:
bfc00000:	3c1b8100 	lui	k1,0x8100
bfc00004:	277b02bc 	addiu	k1,k1,700
bfc00008:	3c1a8000 	lui	k0,0x8000
bfc0000c:	275a20d4 	addiu	k0,k0,8404
bfc00010:	af7a0004 	sw	k0,4(k1)
bfc00014:	3c1a8000 	lui	k0,0x8000
bfc00018:	275a1e20 	addiu	k0,k0,7712
bfc0001c:	af7a0000 	sw	k0,0(k1)
bfc00020:	3c1a8000 	lui	k0,0x8000
bfc00024:	275a1d90 	addiu	k0,k0,7568
bfc00028:	af7a0008 	sw	k0,8(k1)
bfc0002c:	3c1a8000 	lui	k0,0x8000
bfc00030:	275a2004 	addiu	k0,k0,8196
bfc00034:	af7a000c 	sw	k0,12(k1)
bfc00038:	3c1a8000 	lui	k0,0x8000
bfc0003c:	275a2038 	addiu	k0,k0,8248
bfc00040:	af7a0010 	sw	k0,16(k1)
bfc00044:	3c1a8000 	lui	k0,0x8000
bfc00048:	275a206c 	addiu	k0,k0,8300
bfc0004c:	af7a0014 	sw	k0,20(k1)
bfc00050:	3c1a8000 	lui	k0,0x8000
bfc00054:	275a20a0 	addiu	k0,k0,8352
bfc00058:	af7a0018 	sw	k0,24(k1)
bfc0005c:	3c1b8100 	lui	k1,0x8100
bfc00060:	277b07c0 	addiu	k1,k1,1984
bfc00064:	a3600000 	sb	zero,0(k1)
bfc00068:	3c1b8100 	lui	k1,0x8100
bfc0006c:	277b03bc 	addiu	k1,k1,956
bfc00070:	241a0004 	li	k0,4
bfc00074:	a37a0000 	sb	k0,0(k1)
bfc00078:	3c1b8100 	lui	k1,0x8100
bfc0007c:	277b03c0 	addiu	k1,k1,960
bfc00080:	3c1a2000 	lui	k0,0x2000
bfc00084:	275a0000 	addiu	k0,k0,0
bfc00088:	3c0a0002 	lui	t2,0x2
bfc0008c:	034a5020 	add	t2,k0,t2
bfc00090:	af6a0174 	sw	t2,372(k1)
bfc00094:	3c0a0003 	lui	t2,0x3
bfc00098:	034a5020 	add	t2,k0,t2
bfc0009c:	af6a0274 	sw	t2,628(k1)
bfc000a0:	3c0a0004 	lui	t2,0x4
bfc000a4:	034a5020 	add	t2,k0,t2
bfc000a8:	af6a0374 	sw	t2,884(k1)
bfc000ac:	3c1a1000 	lui	k0,0x1000
bfc000b0:	275a0000 	addiu	k0,k0,0
bfc000b4:	8f4a0004 	lw	t2,4(k0)
bfc000b8:	af6a0180 	sw	t2,384(k1)
bfc000bc:	8f4a0008 	lw	t2,8(k0)
bfc000c0:	af6a0280 	sw	t2,640(k1)
bfc000c4:	8f4a000c 	lw	t2,12(k0)
bfc000c8:	af6a0380 	sw	t2,896(k1)
bfc000cc:	3c1abfc0 	lui	k0,0xbfc0
bfc000d0:	275a0140 	addiu	k0,k0,320
bfc000d4:	af7a017c 	sw	k0,380(k1)
bfc000d8:	af7a027c 	sw	k0,636(k1)
bfc000dc:	af7a037c 	sw	k0,892(k1)
bfc000e0:	341aff13 	li	k0,0xff13
bfc000e4:	af7a0100 	sw	k0,256(k1)
bfc000e8:	af7a0200 	sw	k0,512(k1)
bfc000ec:	af7a0300 	sw	k0,768(k1)
bfc000f0:	3c1b9f00 	lui	k1,0x9f00
bfc000f4:	277b0000 	addiu	k1,k1,0
bfc000f8:	241a007f 	li	k0,127
bfc000fc:	af7a0008 	sw	k0,8(k1)
bfc00100:	3c1b9100 	lui	k1,0x9100
bfc00104:	277b0000 	addiu	k1,k1,0
bfc00108:	241a2710 	li	k0,10000
bfc0010c:	af7a0008 	sw	k0,8(k1)
bfc00110:	241a0003 	li	k0,3
bfc00114:	af7a0004 	sw	k0,4(k1)
bfc00118:	3c1b2000 	lui	k1,0x2000
bfc0011c:	277b0000 	addiu	k1,k1,0
bfc00120:	3c1a0001 	lui	k0,0x1
bfc00124:	037ae820 	add	sp,k1,k0
bfc00128:	3c1a1000 	lui	k0,0x1000
bfc0012c:	275a0000 	addiu	k0,k0,0
bfc00130:	8f5a0000 	lw	k0,0(k0)
bfc00134:	409a7000 	mtc0	k0,c0_epc
bfc00138:	341aff13 	li	k0,0xff13
bfc0013c:	409a6000 	mtc0	k0,c0_status

bfc00140 <to_user>:
bfc00140:	42000018 	eret

Disassembly of section seg_kcode:

80000000 <_giet-0x180>:
	...

80000180 <_giet>:
80000180:	401b6800 	mfc0	k1,c0_cause
80000184:	3c1a8100 	lui	k0,0x8100
80000188:	275a0044 	addiu	k0,k0,68
8000018c:	337b003c 	andi	k1,k1,0x3c
80000190:	035bd021 	addu	k0,k0,k1
80000194:	8f5a0000 	lw	k0,0(k0)
80000198:	03400008 	jr	k0
8000019c:	00000000 	nop

800001a0 <_sys_handler>:
800001a0:	27bdffe8 	addiu	sp,sp,-24
800001a4:	401a6000 	mfc0	k0,c0_status
800001a8:	afba0010 	sw	k0,16(sp)
800001ac:	401b7000 	mfc0	k1,c0_epc
800001b0:	277b0004 	addiu	k1,k1,4
800001b4:	afbb0014 	sw	k1,20(sp)
800001b8:	305a001f 	andi	k0,v0,0x1f
800001bc:	001ad080 	sll	k0,k0,0x2
800001c0:	3c1b8100 	lui	k1,0x8100
800001c4:	277b033c 	addiu	k1,k1,828
800001c8:	037ad821 	addu	k1,k1,k0
800001cc:	8f630000 	lw	v1,0(k1)
800001d0:	241bffed 	li	k1,-19
800001d4:	401a6000 	mfc0	k0,c0_status
800001d8:	035bd024 	and	k0,k0,k1
800001dc:	0060f809 	jalr	v1
800001e0:	409a6000 	mtc0	k0,c0_status
800001e4:	40806000 	mtc0	zero,c0_status
800001e8:	8fba0010 	lw	k0,16(sp)
800001ec:	409a6000 	mtc0	k0,c0_status
800001f0:	8fba0014 	lw	k0,20(sp)
800001f4:	409a7000 	mtc0	k0,c0_epc
800001f8:	27bd0018 	addiu	sp,sp,24
800001fc:	42000018 	eret

80000200 <_int_handler>:
80000200:	27bdffa4 	addiu	sp,sp,-92
80000204:	afa10010 	sw	at,16(sp)
80000208:	afa20014 	sw	v0,20(sp)
8000020c:	afa30018 	sw	v1,24(sp)
80000210:	afa4001c 	sw	a0,28(sp)
80000214:	afa50020 	sw	a1,32(sp)
80000218:	afa60024 	sw	a2,36(sp)
8000021c:	afa70028 	sw	a3,40(sp)
80000220:	afa8002c 	sw	t0,44(sp)
80000224:	afa90030 	sw	t1,48(sp)
80000228:	afaa0034 	sw	t2,52(sp)
8000022c:	afab0038 	sw	t3,56(sp)
80000230:	afac003c 	sw	t4,60(sp)
80000234:	afad0040 	sw	t5,64(sp)
80000238:	afae0044 	sw	t6,68(sp)
8000023c:	afaf0048 	sw	t7,72(sp)
80000240:	afb8004c 	sw	t8,76(sp)
80000244:	afb90050 	sw	t9,80(sp)
80000248:	afbf0054 	sw	ra,84(sp)
8000024c:	401b7000 	mfc0	k1,c0_epc
80000250:	afbb0058 	sw	k1,88(sp)
80000254:	3c1a8000 	lui	k0,0x8000
80000258:	275a1cd0 	addiu	k0,k0,7376
8000025c:	0340f809 	jalr	k0
80000260:	00000000 	nop

80000264 <restore>:
80000264:	8fa10010 	lw	at,16(sp)
80000268:	8fa20014 	lw	v0,20(sp)
8000026c:	8fa30018 	lw	v1,24(sp)
80000270:	8fa4001c 	lw	a0,28(sp)
80000274:	8fa50020 	lw	a1,32(sp)
80000278:	8fa60024 	lw	a2,36(sp)
8000027c:	8fa70028 	lw	a3,40(sp)
80000280:	8fa8002c 	lw	t0,44(sp)
80000284:	8fa90030 	lw	t1,48(sp)
80000288:	8faa0034 	lw	t2,52(sp)
8000028c:	8fab0038 	lw	t3,56(sp)
80000290:	8fac003c 	lw	t4,60(sp)
80000294:	8fad0040 	lw	t5,64(sp)
80000298:	8fae0044 	lw	t6,68(sp)
8000029c:	8faf0048 	lw	t7,72(sp)
800002a0:	8fb8004c 	lw	t8,76(sp)
800002a4:	8fb90050 	lw	t9,80(sp)
800002a8:	8fbf0054 	lw	ra,84(sp)
800002ac:	8fbb0058 	lw	k1,88(sp)
800002b0:	27bd005c 	addiu	sp,sp,92
800002b4:	409b7000 	mtc0	k1,c0_epc
800002b8:	42000018 	eret

800002bc <_task_switch>:
800002bc:	0080d820 	add	k1,a0,zero
800002c0:	401a6000 	mfc0	k0,c0_status
800002c4:	af7a0000 	sw	k0,0(k1)
800002c8:	af610004 	sw	at,4(k1)
800002cc:	af620008 	sw	v0,8(k1)
800002d0:	af63000c 	sw	v1,12(k1)
800002d4:	af640010 	sw	a0,16(k1)
800002d8:	af650014 	sw	a1,20(k1)
800002dc:	af660018 	sw	a2,24(k1)
800002e0:	af67001c 	sw	a3,28(k1)
800002e4:	af680020 	sw	t0,32(k1)
800002e8:	af690024 	sw	t1,36(k1)
800002ec:	af6a0028 	sw	t2,40(k1)
800002f0:	af6b002c 	sw	t3,44(k1)
800002f4:	af6c0030 	sw	t4,48(k1)
800002f8:	af6d0034 	sw	t5,52(k1)
800002fc:	af6e0038 	sw	t6,56(k1)
80000300:	af6f003c 	sw	t7,60(k1)
80000304:	af700040 	sw	s0,64(k1)
80000308:	af710044 	sw	s1,68(k1)
8000030c:	af720048 	sw	s2,72(k1)
80000310:	af73004c 	sw	s3,76(k1)
80000314:	af740050 	sw	s4,80(k1)
80000318:	af750054 	sw	s5,84(k1)
8000031c:	af760058 	sw	s6,88(k1)
80000320:	af77005c 	sw	s7,92(k1)
80000324:	af780060 	sw	t8,96(k1)
80000328:	af790064 	sw	t9,100(k1)
8000032c:	0000d012 	mflo	k0
80000330:	af7a0068 	sw	k0,104(k1)
80000334:	0000d010 	mfhi	k0
80000338:	af7a006c 	sw	k0,108(k1)
8000033c:	af7c0070 	sw	gp,112(k1)
80000340:	af7d0074 	sw	sp,116(k1)
80000344:	af7e0078 	sw	s8,120(k1)
80000348:	af7f007c 	sw	ra,124(k1)
8000034c:	401a7000 	mfc0	k0,c0_epc
80000350:	af7a0080 	sw	k0,128(k1)
80000354:	401a6800 	mfc0	k0,c0_cause
80000358:	af7a0084 	sw	k0,132(k1)
8000035c:	00a0d820 	add	k1,a1,zero
80000360:	8f7a0000 	lw	k0,0(k1)
80000364:	409a6000 	mtc0	k0,c0_status
80000368:	8f610004 	lw	at,4(k1)
8000036c:	8f620008 	lw	v0,8(k1)
80000370:	8f63000c 	lw	v1,12(k1)
80000374:	8f640010 	lw	a0,16(k1)
80000378:	8f650014 	lw	a1,20(k1)
8000037c:	8f660018 	lw	a2,24(k1)
80000380:	8f67001c 	lw	a3,28(k1)
80000384:	8f680020 	lw	t0,32(k1)
80000388:	8f690024 	lw	t1,36(k1)
8000038c:	8f6a0028 	lw	t2,40(k1)
80000390:	8f6b002c 	lw	t3,44(k1)
80000394:	8f6c0030 	lw	t4,48(k1)
80000398:	8f6d0034 	lw	t5,52(k1)
8000039c:	8f6e0038 	lw	t6,56(k1)
800003a0:	8f6f003c 	lw	t7,60(k1)
800003a4:	8f700040 	lw	s0,64(k1)
800003a8:	8f710044 	lw	s1,68(k1)
800003ac:	8f720048 	lw	s2,72(k1)
800003b0:	8f73004c 	lw	s3,76(k1)
800003b4:	8f740050 	lw	s4,80(k1)
800003b8:	8f750054 	lw	s5,84(k1)
800003bc:	8f760058 	lw	s6,88(k1)
800003c0:	8f77005c 	lw	s7,92(k1)
800003c4:	8f780060 	lw	t8,96(k1)
800003c8:	8f790064 	lw	t9,100(k1)
800003cc:	8f7a0068 	lw	k0,104(k1)
800003d0:	03400013 	mtlo	k0
800003d4:	8f7a006c 	lw	k0,108(k1)
800003d8:	03400011 	mthi	k0
800003dc:	8f7c0070 	lw	gp,112(k1)
800003e0:	8f7d0074 	lw	sp,116(k1)
800003e4:	8f7e0078 	lw	s8,120(k1)
800003e8:	8f7f007c 	lw	ra,124(k1)
800003ec:	8f7a0080 	lw	k0,128(k1)
800003f0:	409a7000 	mtc0	k0,c0_epc
800003f4:	8f7a0084 	lw	k0,132(k1)
800003f8:	03e00008 	jr	ra
800003fc:	409a6800 	mtc0	k0,c0_cause

80000400 <_putk>:
80000400:	27bdffe0 	addiu	sp,sp,-32
80000404:	afbf001c 	sw	ra,28(sp)
80000408:	afbe0018 	sw	s8,24(sp)
8000040c:	03a0f021 	move	s8,sp
80000410:	afc40020 	sw	a0,32(s8)
80000414:	afc00014 	sw	zero,20(s8)
80000418:	8fc20020 	lw	v0,32(s8)
8000041c:	afc20010 	sw	v0,16(s8)
80000420:	0800010d 	j	80000434 <_putk+0x34>
80000424:	00000000 	nop
80000428:	8fc20014 	lw	v0,20(s8)
8000042c:	24420001 	addiu	v0,v0,1
80000430:	afc20014 	sw	v0,20(s8)
80000434:	8fc20010 	lw	v0,16(s8)
80000438:	80420000 	lb	v0,0(v0)
8000043c:	0002102b 	sltu	v0,zero,v0
80000440:	304200ff 	andi	v0,v0,0xff
80000444:	8fc30010 	lw	v1,16(s8)
80000448:	24630001 	addiu	v1,v1,1
8000044c:	afc30010 	sw	v1,16(s8)
80000450:	1440fff5 	bnez	v0,80000428 <_putk+0x28>
80000454:	00000000 	nop
80000458:	8fc40020 	lw	a0,32(s8)
8000045c:	8fc50014 	lw	a1,20(s8)
80000460:	0c000345 	jal	80000d14 <_tty_write>
80000464:	00000000 	nop
80000468:	03c0e821 	move	sp,s8
8000046c:	8fbf001c 	lw	ra,28(sp)
80000470:	8fbe0018 	lw	s8,24(sp)
80000474:	27bd0020 	addiu	sp,sp,32
80000478:	03e00008 	jr	ra
8000047c:	00000000 	nop

80000480 <_exit>:
80000480:	27bdffb8 	addiu	sp,sp,-72
80000484:	afbf0044 	sw	ra,68(sp)
80000488:	afbe0040 	sw	s8,64(sp)
8000048c:	03a0f021 	move	s8,sp
80000490:	3c028100 	lui	v0,0x8100
80000494:	8c490000 	lw	t1,0(v0)
80000498:	24430000 	addiu	v1,v0,0
8000049c:	8c680004 	lw	t0,4(v1)
800004a0:	24430000 	addiu	v1,v0,0
800004a4:	8c670008 	lw	a3,8(v1)
800004a8:	24430000 	addiu	v1,v0,0
800004ac:	8c66000c 	lw	a2,12(v1)
800004b0:	24430000 	addiu	v1,v0,0
800004b4:	8c650010 	lw	a1,16(v1)
800004b8:	24430000 	addiu	v1,v0,0
800004bc:	8c640014 	lw	a0,20(v1)
800004c0:	24430000 	addiu	v1,v0,0
800004c4:	8c630018 	lw	v1,24(v1)
800004c8:	24420000 	addiu	v0,v0,0
800004cc:	8c42001c 	lw	v0,28(v0)
800004d0:	afc90014 	sw	t1,20(s8)
800004d4:	afc80018 	sw	t0,24(s8)
800004d8:	afc7001c 	sw	a3,28(s8)
800004dc:	afc60020 	sw	a2,32(s8)
800004e0:	afc50024 	sw	a1,36(s8)
800004e4:	afc40028 	sw	a0,40(s8)
800004e8:	afc3002c 	sw	v1,44(s8)
800004ec:	afc20030 	sw	v0,48(s8)
800004f0:	afc00034 	sw	zero,52(s8)
800004f4:	0c0002c2 	jal	80000b08 <_procid>
800004f8:	afc00038 	sw	zero,56(s8)
800004fc:	afc20010 	sw	v0,16(s8)
80000500:	8fc20010 	lw	v0,16(s8)
80000504:	00021202 	srl	v0,v0,0x8
80000508:	304200ff 	andi	v0,v0,0xff
8000050c:	3042000f 	andi	v0,v0,0xf
80000510:	24420030 	addiu	v0,v0,48
80000514:	304200ff 	andi	v0,v0,0xff
80000518:	00021600 	sll	v0,v0,0x18
8000051c:	00021603 	sra	v0,v0,0x18
80000520:	a3c2002b 	sb	v0,43(s8)
80000524:	8fc20010 	lw	v0,16(s8)
80000528:	00021102 	srl	v0,v0,0x4
8000052c:	304200ff 	andi	v0,v0,0xff
80000530:	3042000f 	andi	v0,v0,0xf
80000534:	24420030 	addiu	v0,v0,48
80000538:	304200ff 	andi	v0,v0,0xff
8000053c:	00021600 	sll	v0,v0,0x18
80000540:	00021603 	sra	v0,v0,0x18
80000544:	a3c2002c 	sb	v0,44(s8)
80000548:	8fc20010 	lw	v0,16(s8)
8000054c:	304200ff 	andi	v0,v0,0xff
80000550:	3042000f 	andi	v0,v0,0xf
80000554:	24420030 	addiu	v0,v0,48
80000558:	304200ff 	andi	v0,v0,0xff
8000055c:	00021600 	sll	v0,v0,0x18
80000560:	00021603 	sra	v0,v0,0x18
80000564:	a3c2002d 	sb	v0,45(s8)
80000568:	27c20014 	addiu	v0,s8,20
8000056c:	0c000100 	jal	80000400 <_putk>
80000570:	00402021 	move	a0,v0
80000574:	0800015d 	j	80000574 <_exit+0xf4>
80000578:	00000000 	nop

8000057c <_dcache_buf_invalidate>:
8000057c:	27bdffe8 	addiu	sp,sp,-24
80000580:	afbe0014 	sw	s8,20(sp)
80000584:	03a0f021 	move	s8,sp
80000588:	afc40018 	sw	a0,24(s8)
8000058c:	afc5001c 	sw	a1,28(s8)
80000590:	40028001 	mfc0	v0,c0_config1
80000594:	afc20004 	sw	v0,4(s8)
80000598:	8fc20004 	lw	v0,4(s8)
8000059c:	00021282 	srl	v0,v0,0xa
800005a0:	30420007 	andi	v0,v0,0x7
800005a4:	afc20004 	sw	v0,4(s8)
800005a8:	8fc20004 	lw	v0,4(s8)
800005ac:	24030002 	li	v1,2
800005b0:	00431004 	sllv	v0,v1,v0
800005b4:	afc20000 	sw	v0,0(s8)
800005b8:	08000178 	j	800005e0 <_dcache_buf_invalidate+0x64>
800005bc:	afc00008 	sw	zero,8(s8)
800005c0:	8fc30018 	lw	v1,24(s8)
800005c4:	8fc20008 	lw	v0,8(s8)
800005c8:	00621021 	addu	v0,v1,v0
800005cc:	bc510000 	cache	0x11,0(v0)
800005d0:	8fc30008 	lw	v1,8(s8)
800005d4:	8fc20000 	lw	v0,0(s8)
800005d8:	00621021 	addu	v0,v1,v0
800005dc:	afc20008 	sw	v0,8(s8)
800005e0:	8fc30008 	lw	v1,8(s8)
800005e4:	8fc2001c 	lw	v0,28(s8)
800005e8:	0062102b 	sltu	v0,v1,v0
800005ec:	1440fff4 	bnez	v0,800005c0 <_dcache_buf_invalidate+0x44>
800005f0:	00000000 	nop
800005f4:	03c0e821 	move	sp,s8
800005f8:	8fbe0014 	lw	s8,20(sp)
800005fc:	03e00008 	jr	ra
80000600:	27bd0018 	addiu	sp,sp,24

80000604 <_itoa_dec>:
80000604:	27bdfff0 	addiu	sp,sp,-16
80000608:	afbe000c 	sw	s8,12(sp)
8000060c:	03a0f021 	move	s8,sp
80000610:	afc40010 	sw	a0,16(s8)
80000614:	afc50014 	sw	a1,20(s8)
80000618:	afc00000 	sw	zero,0(s8)
8000061c:	080001b6 	j	800006d8 <_itoa_dec+0xd4>
80000620:	00000000 	nop
80000624:	8fc20010 	lw	v0,16(s8)
80000628:	14400004 	bnez	v0,8000063c <_itoa_dec+0x38>
8000062c:	00000000 	nop
80000630:	8fc20000 	lw	v0,0(s8)
80000634:	14400017 	bnez	v0,80000694 <_itoa_dec+0x90>
80000638:	00000000 	nop
8000063c:	24030009 	li	v1,9
80000640:	8fc20000 	lw	v0,0(s8)
80000644:	00621023 	subu	v0,v1,v0
80000648:	8fc30014 	lw	v1,20(s8)
8000064c:	00621821 	addu	v1,v1,v0
80000650:	8fc40010 	lw	a0,16(s8)
80000654:	3c02cccc 	lui	v0,0xcccc
80000658:	3442cccd 	ori	v0,v0,0xcccd
8000065c:	00820019 	multu	a0,v0
80000660:	00001010 	mfhi	v0
80000664:	000210c2 	srl	v0,v0,0x3
80000668:	00021040 	sll	v0,v0,0x1
8000066c:	00022880 	sll	a1,v0,0x2
80000670:	00451021 	addu	v0,v0,a1
80000674:	00821023 	subu	v0,a0,v0
80000678:	3c048100 	lui	a0,0x8100
8000067c:	24840038 	addiu	a0,a0,56
80000680:	00441021 	addu	v0,v0,a0
80000684:	80420000 	lb	v0,0(v0)
80000688:	a0620000 	sb	v0,0(v1)
8000068c:	080001ac 	j	800006b0 <_itoa_dec+0xac>
80000690:	00000000 	nop
80000694:	24030009 	li	v1,9
80000698:	8fc20000 	lw	v0,0(s8)
8000069c:	00621023 	subu	v0,v1,v0
800006a0:	8fc30014 	lw	v1,20(s8)
800006a4:	00621021 	addu	v0,v1,v0
800006a8:	24030020 	li	v1,32
800006ac:	a0430000 	sb	v1,0(v0)
800006b0:	8fc30010 	lw	v1,16(s8)
800006b4:	3c02cccc 	lui	v0,0xcccc
800006b8:	3442cccd 	ori	v0,v0,0xcccd
800006bc:	00620019 	multu	v1,v0
800006c0:	00001010 	mfhi	v0
800006c4:	000210c2 	srl	v0,v0,0x3
800006c8:	afc20010 	sw	v0,16(s8)
800006cc:	8fc20000 	lw	v0,0(s8)
800006d0:	24420001 	addiu	v0,v0,1
800006d4:	afc20000 	sw	v0,0(s8)
800006d8:	8fc20000 	lw	v0,0(s8)
800006dc:	2c42000a 	sltiu	v0,v0,10
800006e0:	1440ffd0 	bnez	v0,80000624 <_itoa_dec+0x20>
800006e4:	00000000 	nop
800006e8:	03c0e821 	move	sp,s8
800006ec:	8fbe000c 	lw	s8,12(sp)
800006f0:	27bd0010 	addiu	sp,sp,16
800006f4:	03e00008 	jr	ra
800006f8:	00000000 	nop

800006fc <_itoa_hex>:
800006fc:	27bdfff0 	addiu	sp,sp,-16
80000700:	afbe000c 	sw	s8,12(sp)
80000704:	03a0f021 	move	s8,sp
80000708:	afc40010 	sw	a0,16(s8)
8000070c:	afc50014 	sw	a1,20(s8)
80000710:	afc00000 	sw	zero,0(s8)
80000714:	080001d9 	j	80000764 <_itoa_hex+0x68>
80000718:	00000000 	nop
8000071c:	24030007 	li	v1,7
80000720:	8fc20000 	lw	v0,0(s8)
80000724:	00621023 	subu	v0,v1,v0
80000728:	8fc30014 	lw	v1,20(s8)
8000072c:	00621021 	addu	v0,v1,v0
80000730:	8fc30010 	lw	v1,16(s8)
80000734:	3064000f 	andi	a0,v1,0xf
80000738:	3c038100 	lui	v1,0x8100
8000073c:	24630028 	addiu	v1,v1,40
80000740:	00831821 	addu	v1,a0,v1
80000744:	80630000 	lb	v1,0(v1)
80000748:	a0430000 	sb	v1,0(v0)
8000074c:	8fc20010 	lw	v0,16(s8)
80000750:	00021102 	srl	v0,v0,0x4
80000754:	afc20010 	sw	v0,16(s8)
80000758:	8fc20000 	lw	v0,0(s8)
8000075c:	24420001 	addiu	v0,v0,1
80000760:	afc20000 	sw	v0,0(s8)
80000764:	8fc20000 	lw	v0,0(s8)
80000768:	2c420008 	sltiu	v0,v0,8
8000076c:	1440ffeb 	bnez	v0,8000071c <_itoa_hex+0x20>
80000770:	00000000 	nop
80000774:	03c0e821 	move	sp,s8
80000778:	8fbe000c 	lw	s8,12(sp)
8000077c:	27bd0010 	addiu	sp,sp,16
80000780:	03e00008 	jr	ra
80000784:	00000000 	nop

80000788 <_barrier_init>:
80000788:	27bdfff0 	addiu	sp,sp,-16
8000078c:	afbe000c 	sw	s8,12(sp)
80000790:	03a0f021 	move	s8,sp
80000794:	afc40010 	sw	a0,16(s8)
80000798:	afc50014 	sw	a1,20(s8)
8000079c:	8fc20010 	lw	v0,16(s8)
800007a0:	2c420008 	sltiu	v0,v0,8
800007a4:	14400003 	bnez	v0,800007b4 <_barrier_init+0x2c>
800007a8:	00000000 	nop
800007ac:	08000206 	j	80000818 <_barrier_init_done+0x4>
800007b0:	24020001 	li	v0,1
800007b4:	8fc20010 	lw	v0,16(s8)
800007b8:	00021880 	sll	v1,v0,0x2
800007bc:	3c028200 	lui	v0,0x8200
800007c0:	24420000 	addiu	v0,v0,0
800007c4:	00621021 	addu	v0,v1,v0
800007c8:	afc20004 	sw	v0,4(s8)
800007cc:	8fc20010 	lw	v0,16(s8)
800007d0:	00021880 	sll	v1,v0,0x2
800007d4:	3c028200 	lui	v0,0x8200
800007d8:	24420020 	addiu	v0,v0,32
800007dc:	00621021 	addu	v0,v1,v0
800007e0:	afc20000 	sw	v0,0(s8)
800007e4:	8fc40004 	lw	a0,4(s8)
800007e8:	8fc50000 	lw	a1,0(s8)
800007ec:	8fc60014 	lw	a2,20(s8)

800007f0 <_barrier_init_test>:
800007f0:	c0820000 	ll	v0,0(a0)
800007f4:	14400007 	bnez	v0,80000814 <_barrier_init_done>
800007f8:	00000000 	nop
800007fc:	00c01821 	move	v1,a2
80000800:	e0830000 	sc	v1,0(a0)
80000804:	1060fffa 	beqz	v1,800007f0 <_barrier_init_test>
80000808:	00000000 	nop
8000080c:	00c01821 	move	v1,a2
80000810:	aca30000 	sw	v1,0(a1)

80000814 <_barrier_init_done>:
80000814:	00001021 	move	v0,zero
80000818:	03c0e821 	move	sp,s8
8000081c:	8fbe000c 	lw	s8,12(sp)
80000820:	03e00008 	jr	ra
80000824:	27bd0010 	addiu	sp,sp,16

80000828 <_barrier_wait>:
80000828:	27bdffe8 	addiu	sp,sp,-24
8000082c:	afbe0014 	sw	s8,20(sp)
80000830:	03a0f021 	move	s8,sp
80000834:	afc40018 	sw	a0,24(s8)
80000838:	8fc20018 	lw	v0,24(s8)
8000083c:	2c420008 	sltiu	v0,v0,8
80000840:	14400003 	bnez	v0,80000850 <_barrier_wait+0x28>
80000844:	00000000 	nop
80000848:	08000236 	j	800008d8 <_barrier_decrement+0x50>
8000084c:	24020001 	li	v0,1
80000850:	8fc20018 	lw	v0,24(s8)
80000854:	00021880 	sll	v1,v0,0x2
80000858:	3c028200 	lui	v0,0x8200
8000085c:	24420020 	addiu	v0,v0,32
80000860:	00621021 	addu	v0,v1,v0
80000864:	afc20008 	sw	v0,8(s8)
80000868:	8fc30018 	lw	v1,24(s8)
8000086c:	3c028200 	lui	v0,0x8200
80000870:	00031880 	sll	v1,v1,0x2
80000874:	24420000 	addiu	v0,v0,0
80000878:	00621021 	addu	v0,v1,v0
8000087c:	8c420000 	lw	v0,0(v0)
80000880:	afc20004 	sw	v0,4(s8)
80000884:	8fc50008 	lw	a1,8(s8)

80000888 <_barrier_decrement>:
80000888:	c0a40000 	ll	a0,0(a1)
8000088c:	2083ffff 	addi	v1,a0,-1
80000890:	e0a30000 	sc	v1,0(a1)
80000894:	1060fffc 	beqz	v1,80000888 <_barrier_decrement>
80000898:	00000000 	nop
8000089c:	afc40000 	sw	a0,0(s8)
800008a0:	8fc30000 	lw	v1,0(s8)
800008a4:	24020001 	li	v0,1
800008a8:	14620005 	bne	v1,v0,800008c0 <_barrier_decrement+0x38>
800008ac:	00000000 	nop
800008b0:	8fc20008 	lw	v0,8(s8)
800008b4:	8fc30004 	lw	v1,4(s8)
800008b8:	08000235 	j	800008d4 <_barrier_decrement+0x4c>
800008bc:	ac430000 	sw	v1,0(v0)
800008c0:	8fc20008 	lw	v0,8(s8)
800008c4:	8c430000 	lw	v1,0(v0)
800008c8:	8fc20004 	lw	v0,4(s8)
800008cc:	1462fffc 	bne	v1,v0,800008c0 <_barrier_decrement+0x38>
800008d0:	00000000 	nop
800008d4:	00001021 	move	v0,zero
800008d8:	03c0e821 	move	sp,s8
800008dc:	8fbe0014 	lw	s8,20(sp)
800008e0:	03e00008 	jr	ra
800008e4:	27bd0018 	addiu	sp,sp,24

800008e8 <_ctx_switch>:
800008e8:	27bdffd8 	addiu	sp,sp,-40
800008ec:	afbf0024 	sw	ra,36(sp)
800008f0:	afbe0020 	sw	s8,32(sp)
800008f4:	03a0f021 	move	s8,sp
800008f8:	0c0002c2 	jal	80000b08 <_procid>
800008fc:	00000000 	nop
80000900:	afc20010 	sw	v0,16(s8)
80000904:	8fc30010 	lw	v1,16(s8)
80000908:	3c028100 	lui	v0,0x8100
8000090c:	244203bc 	addiu	v0,v0,956
80000910:	00621021 	addu	v0,v1,v0
80000914:	90420000 	lbu	v0,0(v0)
80000918:	2c420002 	sltiu	v0,v0,2
8000091c:	14400030 	bnez	v0,800009e0 <_ctx_switch+0xf8>
80000920:	00000000 	nop
80000924:	8fc30010 	lw	v1,16(s8)
80000928:	3c028100 	lui	v0,0x8100
8000092c:	244207c0 	addiu	v0,v0,1984
80000930:	00621021 	addu	v0,v1,v0
80000934:	90420000 	lbu	v0,0(v0)
80000938:	a3c2001d 	sb	v0,29(s8)
8000093c:	8fc20010 	lw	v0,16(s8)
80000940:	00021880 	sll	v1,v0,0x2
80000944:	93c2001d 	lbu	v0,29(s8)
80000948:	00621021 	addu	v0,v1,v0
8000094c:	00021a00 	sll	v1,v0,0x8
80000950:	3c028100 	lui	v0,0x8100
80000954:	244203c0 	addiu	v0,v0,960
80000958:	00621021 	addu	v0,v1,v0
8000095c:	afc20018 	sw	v0,24(s8)
80000960:	93c2001d 	lbu	v0,29(s8)
80000964:	24440001 	addiu	a0,v0,1
80000968:	8fc30010 	lw	v1,16(s8)
8000096c:	3c028100 	lui	v0,0x8100
80000970:	244203bc 	addiu	v0,v0,956
80000974:	00621021 	addu	v0,v1,v0
80000978:	90420000 	lbu	v0,0(v0)
8000097c:	0082001a 	div	zero,a0,v0
80000980:	004001f4 	teq	v0,zero,0x7
80000984:	00001010 	mfhi	v0
80000988:	a3c2001c 	sb	v0,28(s8)
8000098c:	8fc20010 	lw	v0,16(s8)
80000990:	00021880 	sll	v1,v0,0x2
80000994:	93c2001c 	lbu	v0,28(s8)
80000998:	00621021 	addu	v0,v1,v0
8000099c:	00021a00 	sll	v1,v0,0x8
800009a0:	3c028100 	lui	v0,0x8100
800009a4:	244203c0 	addiu	v0,v0,960
800009a8:	00621021 	addu	v0,v1,v0
800009ac:	afc20014 	sw	v0,20(s8)
800009b0:	8fc30010 	lw	v1,16(s8)
800009b4:	3c028100 	lui	v0,0x8100
800009b8:	244207c0 	addiu	v0,v0,1984
800009bc:	00621021 	addu	v0,v1,v0
800009c0:	93c3001c 	lbu	v1,28(s8)
800009c4:	a0430000 	sb	v1,0(v0)
800009c8:	8fc40018 	lw	a0,24(s8)
800009cc:	8fc50014 	lw	a1,20(s8)
800009d0:	0c0000af 	jal	800002bc <_task_switch>
800009d4:	00000000 	nop
800009d8:	08000279 	j	800009e4 <_ctx_switch+0xfc>
800009dc:	00000000 	nop
800009e0:	00000000 	nop
800009e4:	03c0e821 	move	sp,s8
800009e8:	8fbf0024 	lw	ra,36(sp)
800009ec:	8fbe0020 	lw	s8,32(sp)
800009f0:	27bd0028 	addiu	sp,sp,40
800009f4:	03e00008 	jr	ra
800009f8:	00000000 	nop

800009fc <memcpy>:
800009fc:	27bdffe8 	addiu	sp,sp,-24
80000a00:	afbe0014 	sw	s8,20(sp)
80000a04:	03a0f021 	move	s8,sp
80000a08:	afc40018 	sw	a0,24(s8)
80000a0c:	afc5001c 	sw	a1,28(s8)
80000a10:	afc60020 	sw	a2,32(s8)
80000a14:	8fc20018 	lw	v0,24(s8)
80000a18:	afc2000c 	sw	v0,12(s8)
80000a1c:	8fc2001c 	lw	v0,28(s8)
80000a20:	afc20008 	sw	v0,8(s8)
80000a24:	8fc2000c 	lw	v0,12(s8)
80000a28:	30420003 	andi	v0,v0,0x3
80000a2c:	14400018 	bnez	v0,80000a90 <memcpy+0x94>
80000a30:	00000000 	nop
80000a34:	8fc20008 	lw	v0,8(s8)
80000a38:	30420003 	andi	v0,v0,0x3
80000a3c:	14400014 	bnez	v0,80000a90 <memcpy+0x94>
80000a40:	00000000 	nop
80000a44:	080002a0 	j	80000a80 <memcpy+0x84>
80000a48:	00000000 	nop
80000a4c:	8fc20008 	lw	v0,8(s8)
80000a50:	8c430000 	lw	v1,0(v0)
80000a54:	8fc2000c 	lw	v0,12(s8)
80000a58:	ac430000 	sw	v1,0(v0)
80000a5c:	8fc2000c 	lw	v0,12(s8)
80000a60:	24420004 	addiu	v0,v0,4
80000a64:	afc2000c 	sw	v0,12(s8)
80000a68:	8fc20008 	lw	v0,8(s8)
80000a6c:	24420004 	addiu	v0,v0,4
80000a70:	afc20008 	sw	v0,8(s8)
80000a74:	8fc20020 	lw	v0,32(s8)
80000a78:	2442fffc 	addiu	v0,v0,-4
80000a7c:	afc20020 	sw	v0,32(s8)
80000a80:	8fc20020 	lw	v0,32(s8)
80000a84:	2c420004 	sltiu	v0,v0,4
80000a88:	1040fff0 	beqz	v0,80000a4c <memcpy+0x50>
80000a8c:	00000000 	nop
80000a90:	8fc2000c 	lw	v0,12(s8)
80000a94:	afc20004 	sw	v0,4(s8)
80000a98:	8fc20008 	lw	v0,8(s8)
80000a9c:	afc20000 	sw	v0,0(s8)
80000aa0:	080002b4 	j	80000ad0 <memcpy+0xd4>
80000aa4:	00000000 	nop
80000aa8:	8fc20000 	lw	v0,0(s8)
80000aac:	90430000 	lbu	v1,0(v0)
80000ab0:	8fc20004 	lw	v0,4(s8)
80000ab4:	a0430000 	sb	v1,0(v0)
80000ab8:	8fc20004 	lw	v0,4(s8)
80000abc:	24420001 	addiu	v0,v0,1
80000ac0:	afc20004 	sw	v0,4(s8)
80000ac4:	8fc20000 	lw	v0,0(s8)
80000ac8:	24420001 	addiu	v0,v0,1
80000acc:	afc20000 	sw	v0,0(s8)
80000ad0:	8fc20020 	lw	v0,32(s8)
80000ad4:	0002102b 	sltu	v0,zero,v0
80000ad8:	304200ff 	andi	v0,v0,0xff
80000adc:	8fc30020 	lw	v1,32(s8)
80000ae0:	2463ffff 	addiu	v1,v1,-1
80000ae4:	afc30020 	sw	v1,32(s8)
80000ae8:	1440ffef 	bnez	v0,80000aa8 <memcpy+0xac>
80000aec:	00000000 	nop
80000af0:	8fc20018 	lw	v0,24(s8)
80000af4:	03c0e821 	move	sp,s8
80000af8:	8fbe0014 	lw	s8,20(sp)
80000afc:	27bd0018 	addiu	sp,sp,24
80000b00:	03e00008 	jr	ra
80000b04:	00000000 	nop

80000b08 <_procid>:
80000b08:	27bdfff0 	addiu	sp,sp,-16
80000b0c:	afbe000c 	sw	s8,12(sp)
80000b10:	03a0f021 	move	s8,sp
80000b14:	40027801 	mfc0	v0,$15,1
80000b18:	afc20000 	sw	v0,0(s8)
80000b1c:	8fc20000 	lw	v0,0(s8)
80000b20:	304203ff 	andi	v0,v0,0x3ff
80000b24:	03c0e821 	move	sp,s8
80000b28:	8fbe000c 	lw	s8,12(sp)
80000b2c:	03e00008 	jr	ra
80000b30:	27bd0010 	addiu	sp,sp,16

80000b34 <_proctime>:
80000b34:	27bdfff0 	addiu	sp,sp,-16
80000b38:	afbe000c 	sw	s8,12(sp)
80000b3c:	03a0f021 	move	s8,sp
80000b40:	40024800 	mfc0	v0,c0_count
80000b44:	afc20000 	sw	v0,0(s8)
80000b48:	8fc20000 	lw	v0,0(s8)
80000b4c:	03c0e821 	move	sp,s8
80000b50:	8fbe000c 	lw	s8,12(sp)
80000b54:	03e00008 	jr	ra
80000b58:	27bd0010 	addiu	sp,sp,16

80000b5c <_timer_write>:
80000b5c:	27bdffe0 	addiu	sp,sp,-32
80000b60:	afbf001c 	sw	ra,28(sp)
80000b64:	afbe0018 	sw	s8,24(sp)
80000b68:	03a0f021 	move	s8,sp
80000b6c:	afc40020 	sw	a0,32(s8)
80000b70:	afc50024 	sw	a1,36(s8)
80000b74:	8fc20020 	lw	v0,32(s8)
80000b78:	2c420004 	sltiu	v0,v0,4
80000b7c:	14400004 	bnez	v0,80000b90 <_timer_write+0x34>
80000b80:	00000000 	nop
80000b84:	24020001 	li	v0,1
80000b88:	080002f4 	j	80000bd0 <_timer_write+0x74>
80000b8c:	00000000 	nop
80000b90:	0c0002c2 	jal	80000b08 <_procid>
80000b94:	00000000 	nop
80000b98:	afc20010 	sw	v0,16(s8)
80000b9c:	3c029100 	lui	v0,0x9100
80000ba0:	24430000 	addiu	v1,v0,0
80000ba4:	8fc20010 	lw	v0,16(s8)
80000ba8:	00021100 	sll	v0,v0,0x4
80000bac:	00621021 	addu	v0,v1,v0
80000bb0:	afc20014 	sw	v0,20(s8)
80000bb4:	8fc20020 	lw	v0,32(s8)
80000bb8:	00021080 	sll	v0,v0,0x2
80000bbc:	8fc30014 	lw	v1,20(s8)
80000bc0:	00621021 	addu	v0,v1,v0
80000bc4:	8fc30024 	lw	v1,36(s8)
80000bc8:	ac430000 	sw	v1,0(v0)
80000bcc:	00001021 	move	v0,zero
80000bd0:	03c0e821 	move	sp,s8
80000bd4:	8fbf001c 	lw	ra,28(sp)
80000bd8:	8fbe0018 	lw	s8,24(sp)
80000bdc:	27bd0020 	addiu	sp,sp,32
80000be0:	03e00008 	jr	ra
80000be4:	00000000 	nop

80000be8 <_timer_read>:
80000be8:	27bdffe0 	addiu	sp,sp,-32
80000bec:	afbf001c 	sw	ra,28(sp)
80000bf0:	afbe0018 	sw	s8,24(sp)
80000bf4:	03a0f021 	move	s8,sp
80000bf8:	afc40020 	sw	a0,32(s8)
80000bfc:	afc50024 	sw	a1,36(s8)
80000c00:	8fc20020 	lw	v0,32(s8)
80000c04:	2c420004 	sltiu	v0,v0,4
80000c08:	14400004 	bnez	v0,80000c1c <_timer_read+0x34>
80000c0c:	00000000 	nop
80000c10:	24020001 	li	v0,1
80000c14:	08000318 	j	80000c60 <_timer_read+0x78>
80000c18:	00000000 	nop
80000c1c:	0c0002c2 	jal	80000b08 <_procid>
80000c20:	00000000 	nop
80000c24:	afc20010 	sw	v0,16(s8)
80000c28:	3c029100 	lui	v0,0x9100
80000c2c:	24430000 	addiu	v1,v0,0
80000c30:	8fc20010 	lw	v0,16(s8)
80000c34:	00021100 	sll	v0,v0,0x4
80000c38:	00621021 	addu	v0,v1,v0
80000c3c:	afc20014 	sw	v0,20(s8)
80000c40:	8fc20020 	lw	v0,32(s8)
80000c44:	00021080 	sll	v0,v0,0x2
80000c48:	8fc30014 	lw	v1,20(s8)
80000c4c:	00621021 	addu	v0,v1,v0
80000c50:	8c430000 	lw	v1,0(v0)
80000c54:	8fc20024 	lw	v0,36(s8)
80000c58:	ac430000 	sw	v1,0(v0)
80000c5c:	00001021 	move	v0,zero
80000c60:	03c0e821 	move	sp,s8
80000c64:	8fbf001c 	lw	ra,28(sp)
80000c68:	8fbe0018 	lw	s8,24(sp)
80000c6c:	27bd0020 	addiu	sp,sp,32
80000c70:	03e00008 	jr	ra
80000c74:	00000000 	nop

80000c78 <_tty_config>:
80000c78:	27bdfff8 	addiu	sp,sp,-8
80000c7c:	afbe0004 	sw	s8,4(sp)
80000c80:	03a0f021 	move	s8,sp
80000c84:	afc40008 	sw	a0,8(s8)
80000c88:	afc5000c 	sw	a1,12(s8)
80000c8c:	afc60010 	sw	a2,16(s8)
80000c90:	8fc20010 	lw	v0,16(s8)
80000c94:	2c420004 	sltiu	v0,v0,4
80000c98:	14400004 	bnez	v0,80000cac <_tty_config+0x34>
80000c9c:	00000000 	nop
80000ca0:	00001021 	move	v0,zero
80000ca4:	08000340 	j	80000d00 <_tty_config+0x88>
80000ca8:	00000000 	nop
80000cac:	8fc2000c 	lw	v0,12(s8)
80000cb0:	10400004 	beqz	v0,80000cc4 <_tty_config+0x4c>
80000cb4:	00000000 	nop
80000cb8:	00001021 	move	v0,zero
80000cbc:	08000340 	j	80000d00 <_tty_config+0x88>
80000cc0:	00000000 	nop
80000cc4:	8fc2000c 	lw	v0,12(s8)
80000cc8:	00021880 	sll	v1,v0,0x2
80000ccc:	8fc20010 	lw	v0,16(s8)
80000cd0:	00621021 	addu	v0,v1,v0
80000cd4:	00021180 	sll	v0,v0,0x6
80000cd8:	24440022 	addiu	a0,v0,34
80000cdc:	8fc30008 	lw	v1,8(s8)
80000ce0:	3c028000 	lui	v0,0x8000
80000ce4:	00621821 	addu	v1,v1,v0
80000ce8:	3c028100 	lui	v0,0x8100
80000cec:	00042080 	sll	a0,a0,0x2
80000cf0:	244203c0 	addiu	v0,v0,960
80000cf4:	00821021 	addu	v0,a0,v0
80000cf8:	ac430000 	sw	v1,0(v0)
80000cfc:	24020001 	li	v0,1
80000d00:	03c0e821 	move	sp,s8
80000d04:	8fbe0004 	lw	s8,4(sp)
80000d08:	27bd0008 	addiu	sp,sp,8
80000d0c:	03e00008 	jr	ra
80000d10:	00000000 	nop

80000d14 <_tty_write>:
80000d14:	27bdffd0 	addiu	sp,sp,-48
80000d18:	afbf002c 	sw	ra,44(sp)
80000d1c:	afbe0028 	sw	s8,40(sp)
80000d20:	03a0f021 	move	s8,sp
80000d24:	afc40030 	sw	a0,48(s8)
80000d28:	afc50034 	sw	a1,52(s8)
80000d2c:	0c0002c2 	jal	80000b08 <_procid>
80000d30:	00000000 	nop
80000d34:	afc2001c 	sw	v0,28(s8)
80000d38:	8fc3001c 	lw	v1,28(s8)
80000d3c:	3c028100 	lui	v0,0x8100
80000d40:	244207c0 	addiu	v0,v0,1984
80000d44:	00621021 	addu	v0,v1,v0
80000d48:	90420000 	lbu	v0,0(v0)
80000d4c:	afc20018 	sw	v0,24(s8)
80000d50:	8fc2001c 	lw	v0,28(s8)
80000d54:	00021880 	sll	v1,v0,0x2
80000d58:	8fc20018 	lw	v0,24(s8)
80000d5c:	00621021 	addu	v0,v1,v0
80000d60:	00021180 	sll	v0,v0,0x6
80000d64:	24430022 	addiu	v1,v0,34
80000d68:	3c028100 	lui	v0,0x8100
80000d6c:	00031880 	sll	v1,v1,0x2
80000d70:	244203c0 	addiu	v0,v0,960
80000d74:	00621021 	addu	v0,v1,v0
80000d78:	8c420000 	lw	v0,0(v0)
80000d7c:	afc20014 	sw	v0,20(s8)
80000d80:	8fc20014 	lw	v0,20(s8)
80000d84:	14400008 	bnez	v0,80000da8 <_tty_write+0x94>
80000d88:	00000000 	nop
80000d8c:	8fc2001c 	lw	v0,28(s8)
80000d90:	00021880 	sll	v1,v0,0x2
80000d94:	8fc20018 	lw	v0,24(s8)
80000d98:	00621021 	addu	v0,v1,v0
80000d9c:	afc20014 	sw	v0,20(s8)
80000da0:	0800036e 	j	80000db8 <_tty_write+0xa4>
80000da4:	00000000 	nop
80000da8:	8fc30014 	lw	v1,20(s8)
80000dac:	3c028000 	lui	v0,0x8000
80000db0:	00621021 	addu	v0,v1,v0
80000db4:	afc20014 	sw	v0,20(s8)
80000db8:	3c029000 	lui	v0,0x9000
80000dbc:	24430000 	addiu	v1,v0,0
80000dc0:	8fc20014 	lw	v0,20(s8)
80000dc4:	00021100 	sll	v0,v0,0x4
80000dc8:	00621021 	addu	v0,v1,v0
80000dcc:	afc20020 	sw	v0,32(s8)
80000dd0:	afc00010 	sw	zero,16(s8)
80000dd4:	08000387 	j	80000e1c <_tty_write+0x108>
80000dd8:	00000000 	nop
80000ddc:	8fc20020 	lw	v0,32(s8)
80000de0:	24420004 	addiu	v0,v0,4
80000de4:	8c420000 	lw	v0,0(v0)
80000de8:	30420002 	andi	v0,v0,0x2
80000dec:	14400012 	bnez	v0,80000e38 <_tty_write+0x124>
80000df0:	00000000 	nop
80000df4:	8fc30030 	lw	v1,48(s8)
80000df8:	8fc20010 	lw	v0,16(s8)
80000dfc:	00621021 	addu	v0,v1,v0
80000e00:	80420000 	lb	v0,0(v0)
80000e04:	00401821 	move	v1,v0
80000e08:	8fc20020 	lw	v0,32(s8)
80000e0c:	ac430000 	sw	v1,0(v0)
80000e10:	8fc20010 	lw	v0,16(s8)
80000e14:	24420001 	addiu	v0,v0,1
80000e18:	afc20010 	sw	v0,16(s8)
80000e1c:	8fc30010 	lw	v1,16(s8)
80000e20:	8fc20034 	lw	v0,52(s8)
80000e24:	0062102b 	sltu	v0,v1,v0
80000e28:	1440ffec 	bnez	v0,80000ddc <_tty_write+0xc8>
80000e2c:	00000000 	nop
80000e30:	0800038f 	j	80000e3c <_tty_write+0x128>
80000e34:	00000000 	nop
80000e38:	00000000 	nop
80000e3c:	8fc20010 	lw	v0,16(s8)
80000e40:	03c0e821 	move	sp,s8
80000e44:	8fbf002c 	lw	ra,44(sp)
80000e48:	8fbe0028 	lw	s8,40(sp)
80000e4c:	27bd0030 	addiu	sp,sp,48
80000e50:	03e00008 	jr	ra
80000e54:	00000000 	nop

80000e58 <_tty_read_irq>:
80000e58:	27bdffd8 	addiu	sp,sp,-40
80000e5c:	afbf0024 	sw	ra,36(sp)
80000e60:	afbe0020 	sw	s8,32(sp)
80000e64:	03a0f021 	move	s8,sp
80000e68:	afc40028 	sw	a0,40(s8)
80000e6c:	afc5002c 	sw	a1,44(s8)
80000e70:	0c0002c2 	jal	80000b08 <_procid>
80000e74:	00000000 	nop
80000e78:	afc20018 	sw	v0,24(s8)
80000e7c:	8fc30018 	lw	v1,24(s8)
80000e80:	3c028100 	lui	v0,0x8100
80000e84:	244207c0 	addiu	v0,v0,1984
80000e88:	00621021 	addu	v0,v1,v0
80000e8c:	90420000 	lbu	v0,0(v0)
80000e90:	afc20014 	sw	v0,20(s8)
80000e94:	8fc20018 	lw	v0,24(s8)
80000e98:	00021880 	sll	v1,v0,0x2
80000e9c:	8fc20014 	lw	v0,20(s8)
80000ea0:	00621021 	addu	v0,v1,v0
80000ea4:	00021180 	sll	v0,v0,0x6
80000ea8:	24430022 	addiu	v1,v0,34
80000eac:	3c028100 	lui	v0,0x8100
80000eb0:	00031880 	sll	v1,v1,0x2
80000eb4:	244203c0 	addiu	v0,v0,960
80000eb8:	00621021 	addu	v0,v1,v0
80000ebc:	8c420000 	lw	v0,0(v0)
80000ec0:	afc20010 	sw	v0,16(s8)
80000ec4:	8fc20010 	lw	v0,16(s8)
80000ec8:	14400008 	bnez	v0,80000eec <_tty_read_irq+0x94>
80000ecc:	00000000 	nop
80000ed0:	8fc20018 	lw	v0,24(s8)
80000ed4:	00021880 	sll	v1,v0,0x2
80000ed8:	8fc20014 	lw	v0,20(s8)
80000edc:	00621021 	addu	v0,v1,v0
80000ee0:	afc20010 	sw	v0,16(s8)
80000ee4:	080003bf 	j	80000efc <_tty_read_irq+0xa4>
80000ee8:	00000000 	nop
80000eec:	8fc30010 	lw	v1,16(s8)
80000ef0:	3c028000 	lui	v0,0x8000
80000ef4:	00621021 	addu	v0,v1,v0
80000ef8:	afc20010 	sw	v0,16(s8)
80000efc:	8fc30010 	lw	v1,16(s8)
80000f00:	3c028200 	lui	v0,0x8200
80000f04:	24420050 	addiu	v0,v0,80
80000f08:	00621021 	addu	v0,v1,v0
80000f0c:	90420000 	lbu	v0,0(v0)
80000f10:	304200ff 	andi	v0,v0,0xff
80000f14:	14400004 	bnez	v0,80000f28 <_tty_read_irq+0xd0>
80000f18:	00000000 	nop
80000f1c:	00001021 	move	v0,zero
80000f20:	080003da 	j	80000f68 <_tty_read_irq+0x110>
80000f24:	00000000 	nop
80000f28:	8fc30010 	lw	v1,16(s8)
80000f2c:	3c028200 	lui	v0,0x8200
80000f30:	2442004c 	addiu	v0,v0,76
80000f34:	00621021 	addu	v0,v1,v0
80000f38:	90420000 	lbu	v0,0(v0)
80000f3c:	304200ff 	andi	v0,v0,0xff
80000f40:	00021e00 	sll	v1,v0,0x18
80000f44:	00031e03 	sra	v1,v1,0x18
80000f48:	8fc20028 	lw	v0,40(s8)
80000f4c:	a0430000 	sb	v1,0(v0)
80000f50:	8fc30010 	lw	v1,16(s8)
80000f54:	3c028200 	lui	v0,0x8200
80000f58:	24420050 	addiu	v0,v0,80
80000f5c:	00621021 	addu	v0,v1,v0
80000f60:	a0400000 	sb	zero,0(v0)
80000f64:	24020001 	li	v0,1
80000f68:	03c0e821 	move	sp,s8
80000f6c:	8fbf0024 	lw	ra,36(sp)
80000f70:	8fbe0020 	lw	s8,32(sp)
80000f74:	27bd0028 	addiu	sp,sp,40
80000f78:	03e00008 	jr	ra
80000f7c:	00000000 	nop

80000f80 <_tty_read>:
80000f80:	27bdffd8 	addiu	sp,sp,-40
80000f84:	afbf0024 	sw	ra,36(sp)
80000f88:	afbe0020 	sw	s8,32(sp)
80000f8c:	03a0f021 	move	s8,sp
80000f90:	afc40028 	sw	a0,40(s8)
80000f94:	afc5002c 	sw	a1,44(s8)
80000f98:	0c0002c2 	jal	80000b08 <_procid>
80000f9c:	00000000 	nop
80000fa0:	afc20018 	sw	v0,24(s8)
80000fa4:	8fc30018 	lw	v1,24(s8)
80000fa8:	3c028100 	lui	v0,0x8100
80000fac:	244207c0 	addiu	v0,v0,1984
80000fb0:	00621021 	addu	v0,v1,v0
80000fb4:	90420000 	lbu	v0,0(v0)
80000fb8:	afc20014 	sw	v0,20(s8)
80000fbc:	8fc20018 	lw	v0,24(s8)
80000fc0:	00021880 	sll	v1,v0,0x2
80000fc4:	8fc20014 	lw	v0,20(s8)
80000fc8:	00621021 	addu	v0,v1,v0
80000fcc:	00021180 	sll	v0,v0,0x6
80000fd0:	24430022 	addiu	v1,v0,34
80000fd4:	3c028100 	lui	v0,0x8100
80000fd8:	00031880 	sll	v1,v1,0x2
80000fdc:	244203c0 	addiu	v0,v0,960
80000fe0:	00621021 	addu	v0,v1,v0
80000fe4:	8c420000 	lw	v0,0(v0)
80000fe8:	afc20010 	sw	v0,16(s8)
80000fec:	8fc20010 	lw	v0,16(s8)
80000ff0:	14400008 	bnez	v0,80001014 <_tty_read+0x94>
80000ff4:	00000000 	nop
80000ff8:	8fc20018 	lw	v0,24(s8)
80000ffc:	00021880 	sll	v1,v0,0x2
80001000:	8fc20014 	lw	v0,20(s8)
80001004:	00621021 	addu	v0,v1,v0
80001008:	afc20010 	sw	v0,16(s8)
8000100c:	08000409 	j	80001024 <_tty_read+0xa4>
80001010:	00000000 	nop
80001014:	8fc30010 	lw	v1,16(s8)
80001018:	3c028000 	lui	v0,0x8000
8000101c:	00621021 	addu	v0,v1,v0
80001020:	afc20010 	sw	v0,16(s8)
80001024:	3c029000 	lui	v0,0x9000
80001028:	24430000 	addiu	v1,v0,0
8000102c:	8fc20010 	lw	v0,16(s8)
80001030:	00021100 	sll	v0,v0,0x4
80001034:	00621021 	addu	v0,v1,v0
80001038:	afc2001c 	sw	v0,28(s8)
8000103c:	8fc2001c 	lw	v0,28(s8)
80001040:	24420004 	addiu	v0,v0,4
80001044:	8c420000 	lw	v0,0(v0)
80001048:	30420001 	andi	v0,v0,0x1
8000104c:	14400004 	bnez	v0,80001060 <_tty_read+0xe0>
80001050:	00000000 	nop
80001054:	00001021 	move	v0,zero
80001058:	08000420 	j	80001080 <_tty_read+0x100>
8000105c:	00000000 	nop
80001060:	8fc2001c 	lw	v0,28(s8)
80001064:	24420008 	addiu	v0,v0,8
80001068:	8c420000 	lw	v0,0(v0)
8000106c:	00021e00 	sll	v1,v0,0x18
80001070:	00031e03 	sra	v1,v1,0x18
80001074:	8fc20028 	lw	v0,40(s8)
80001078:	a0430000 	sb	v1,0(v0)
8000107c:	24020001 	li	v0,1
80001080:	03c0e821 	move	sp,s8
80001084:	8fbf0024 	lw	ra,36(sp)
80001088:	8fbe0020 	lw	s8,32(sp)
8000108c:	27bd0028 	addiu	sp,sp,40
80001090:	03e00008 	jr	ra
80001094:	00000000 	nop

80001098 <_icu_write>:
80001098:	27bdffe0 	addiu	sp,sp,-32
8000109c:	afbf001c 	sw	ra,28(sp)
800010a0:	afbe0018 	sw	s8,24(sp)
800010a4:	03a0f021 	move	s8,sp
800010a8:	afc40020 	sw	a0,32(s8)
800010ac:	afc50024 	sw	a1,36(s8)
800010b0:	8fc20020 	lw	v0,32(s8)
800010b4:	2c420005 	sltiu	v0,v0,5
800010b8:	14400004 	bnez	v0,800010cc <_icu_write+0x34>
800010bc:	00000000 	nop
800010c0:	24020001 	li	v0,1
800010c4:	08000443 	j	8000110c <_icu_write+0x74>
800010c8:	00000000 	nop
800010cc:	0c0002c2 	jal	80000b08 <_procid>
800010d0:	00000000 	nop
800010d4:	afc20010 	sw	v0,16(s8)
800010d8:	3c029f00 	lui	v0,0x9f00
800010dc:	24430000 	addiu	v1,v0,0
800010e0:	8fc20010 	lw	v0,16(s8)
800010e4:	00021140 	sll	v0,v0,0x5
800010e8:	00621021 	addu	v0,v1,v0
800010ec:	afc20014 	sw	v0,20(s8)
800010f0:	8fc20020 	lw	v0,32(s8)
800010f4:	00021080 	sll	v0,v0,0x2
800010f8:	8fc30014 	lw	v1,20(s8)
800010fc:	00621021 	addu	v0,v1,v0
80001100:	8fc30024 	lw	v1,36(s8)
80001104:	ac430000 	sw	v1,0(v0)
80001108:	00001021 	move	v0,zero
8000110c:	03c0e821 	move	sp,s8
80001110:	8fbf001c 	lw	ra,28(sp)
80001114:	8fbe0018 	lw	s8,24(sp)
80001118:	27bd0020 	addiu	sp,sp,32
8000111c:	03e00008 	jr	ra
80001120:	00000000 	nop

80001124 <_icu_read>:
80001124:	27bdffe0 	addiu	sp,sp,-32
80001128:	afbf001c 	sw	ra,28(sp)
8000112c:	afbe0018 	sw	s8,24(sp)
80001130:	03a0f021 	move	s8,sp
80001134:	afc40020 	sw	a0,32(s8)
80001138:	afc50024 	sw	a1,36(s8)
8000113c:	8fc20020 	lw	v0,32(s8)
80001140:	2c420005 	sltiu	v0,v0,5
80001144:	14400004 	bnez	v0,80001158 <_icu_read+0x34>
80001148:	00000000 	nop
8000114c:	24020001 	li	v0,1
80001150:	08000467 	j	8000119c <_icu_read+0x78>
80001154:	00000000 	nop
80001158:	0c0002c2 	jal	80000b08 <_procid>
8000115c:	00000000 	nop
80001160:	afc20010 	sw	v0,16(s8)
80001164:	3c029f00 	lui	v0,0x9f00
80001168:	24430000 	addiu	v1,v0,0
8000116c:	8fc20010 	lw	v0,16(s8)
80001170:	00021140 	sll	v0,v0,0x5
80001174:	00621021 	addu	v0,v1,v0
80001178:	afc20014 	sw	v0,20(s8)
8000117c:	8fc20020 	lw	v0,32(s8)
80001180:	00021080 	sll	v0,v0,0x2
80001184:	8fc30014 	lw	v1,20(s8)
80001188:	00621021 	addu	v0,v1,v0
8000118c:	8c430000 	lw	v1,0(v0)
80001190:	8fc20024 	lw	v0,36(s8)
80001194:	ac430000 	sw	v1,0(v0)
80001198:	00001021 	move	v0,zero
8000119c:	03c0e821 	move	sp,s8
800011a0:	8fbf001c 	lw	ra,28(sp)
800011a4:	8fbe0018 	lw	s8,24(sp)
800011a8:	27bd0020 	addiu	sp,sp,32
800011ac:	03e00008 	jr	ra
800011b0:	00000000 	nop

800011b4 <_gcd_write>:
800011b4:	27bdfff0 	addiu	sp,sp,-16
800011b8:	afbe000c 	sw	s8,12(sp)
800011bc:	03a0f021 	move	s8,sp
800011c0:	afc40010 	sw	a0,16(s8)
800011c4:	afc50014 	sw	a1,20(s8)
800011c8:	8fc20010 	lw	v0,16(s8)
800011cc:	2c420004 	sltiu	v0,v0,4
800011d0:	14400004 	bnez	v0,800011e4 <_gcd_write+0x30>
800011d4:	00000000 	nop
800011d8:	24020001 	li	v0,1
800011dc:	08000483 	j	8000120c <_gcd_write+0x58>
800011e0:	00000000 	nop
800011e4:	3c029500 	lui	v0,0x9500
800011e8:	24420000 	addiu	v0,v0,0
800011ec:	afc20000 	sw	v0,0(s8)
800011f0:	8fc20010 	lw	v0,16(s8)
800011f4:	00021080 	sll	v0,v0,0x2
800011f8:	8fc30000 	lw	v1,0(s8)
800011fc:	00621021 	addu	v0,v1,v0
80001200:	8fc30014 	lw	v1,20(s8)
80001204:	ac430000 	sw	v1,0(v0)
80001208:	00001021 	move	v0,zero
8000120c:	03c0e821 	move	sp,s8
80001210:	8fbe000c 	lw	s8,12(sp)
80001214:	27bd0010 	addiu	sp,sp,16
80001218:	03e00008 	jr	ra
8000121c:	00000000 	nop

80001220 <_gcd_read>:
80001220:	27bdfff0 	addiu	sp,sp,-16
80001224:	afbe000c 	sw	s8,12(sp)
80001228:	03a0f021 	move	s8,sp
8000122c:	afc40010 	sw	a0,16(s8)
80001230:	afc50014 	sw	a1,20(s8)
80001234:	8fc20010 	lw	v0,16(s8)
80001238:	2c420004 	sltiu	v0,v0,4
8000123c:	14400004 	bnez	v0,80001250 <_gcd_read+0x30>
80001240:	00000000 	nop
80001244:	24020001 	li	v0,1
80001248:	0800049f 	j	8000127c <_gcd_read+0x5c>
8000124c:	00000000 	nop
80001250:	3c029500 	lui	v0,0x9500
80001254:	24420000 	addiu	v0,v0,0
80001258:	afc20000 	sw	v0,0(s8)
8000125c:	8fc20010 	lw	v0,16(s8)
80001260:	00021080 	sll	v0,v0,0x2
80001264:	8fc30000 	lw	v1,0(s8)
80001268:	00621021 	addu	v0,v1,v0
8000126c:	8c430000 	lw	v1,0(v0)
80001270:	8fc20014 	lw	v0,20(s8)
80001274:	ac430000 	sw	v1,0(v0)
80001278:	00001021 	move	v0,zero
8000127c:	03c0e821 	move	sp,s8
80001280:	8fbe000c 	lw	s8,12(sp)
80001284:	27bd0010 	addiu	sp,sp,16
80001288:	03e00008 	jr	ra
8000128c:	00000000 	nop

80001290 <_ioc_get_lock>:
80001290:	27bdffe0 	addiu	sp,sp,-32
80001294:	afbf001c 	sw	ra,28(sp)
80001298:	afbe0018 	sw	s8,24(sp)
8000129c:	afb10014 	sw	s1,20(sp)
800012a0:	afb00010 	sw	s0,16(sp)
800012a4:	0c0002cd 	jal	80000b34 <_proctime>
800012a8:	03a0f021 	move	s8,sp
800012ac:	00021100 	sll	v0,v0,0x4
800012b0:	305100ff 	andi	s1,v0,0xff
800012b4:	3c028200 	lui	v0,0x8200
800012b8:	24500048 	addiu	s0,v0,72

800012bc <_ioc_llsc>:
800012bc:	c2020000 	ll	v0,0(s0)
800012c0:	14400005 	bnez	v0,800012d8 <_ioc_delay>
800012c4:	00000000 	nop
800012c8:	24030001 	li	v1,1
800012cc:	e2030000 	sc	v1,0(s0)
800012d0:	14600007 	bnez	v1,800012f0 <_ioc_ok>
800012d4:	00000000 	nop

800012d8 <_ioc_delay>:
800012d8:	02202021 	move	a0,s1

800012dc <_ioc_loop>:
800012dc:	2084ffff 	addi	a0,a0,-1
800012e0:	1080fffe 	beqz	a0,800012dc <_ioc_loop>
800012e4:	00000000 	nop
800012e8:	080004af 	j	800012bc <_ioc_llsc>
800012ec:	00000000 	nop

800012f0 <_ioc_ok>:
800012f0:	03c0e821 	move	sp,s8
800012f4:	8fbf001c 	lw	ra,28(sp)
800012f8:	8fbe0018 	lw	s8,24(sp)
800012fc:	8fb10014 	lw	s1,20(sp)
80001300:	8fb00010 	lw	s0,16(sp)
80001304:	03e00008 	jr	ra
80001308:	27bd0020 	addiu	sp,sp,32

8000130c <_ioc_write>:
8000130c:	27bdffe0 	addiu	sp,sp,-32
80001310:	afbf001c 	sw	ra,28(sp)
80001314:	afbe0018 	sw	s8,24(sp)
80001318:	03a0f021 	move	s8,sp
8000131c:	afc40020 	sw	a0,32(s8)
80001320:	afc50024 	sw	a1,36(s8)
80001324:	afc60028 	sw	a2,40(s8)
80001328:	3c029200 	lui	v0,0x9200
8000132c:	24420000 	addiu	v0,v0,0
80001330:	afc20014 	sw	v0,20(s8)
80001334:	8fc20014 	lw	v0,20(s8)
80001338:	2442001c 	addiu	v0,v0,28
8000133c:	8c420000 	lw	v0,0(v0)
80001340:	afc20010 	sw	v0,16(s8)
80001344:	8fc20024 	lw	v0,36(s8)
80001348:	04400008 	bltz	v0,8000136c <_ioc_write+0x60>
8000134c:	00000000 	nop
80001350:	8fc30010 	lw	v1,16(s8)
80001354:	8fc20028 	lw	v0,40(s8)
80001358:	70621802 	mul	v1,v1,v0
8000135c:	8fc20024 	lw	v0,36(s8)
80001360:	00621021 	addu	v0,v1,v0
80001364:	04410004 	bgez	v0,80001378 <_ioc_write+0x6c>
80001368:	00000000 	nop
8000136c:	24020001 	li	v0,1
80001370:	080004f4 	j	800013d0 <_ioc_write+0xc4>
80001374:	00000000 	nop
80001378:	0c0004a4 	jal	80001290 <_ioc_get_lock>
8000137c:	00000000 	nop
80001380:	8fc30024 	lw	v1,36(s8)
80001384:	8fc20014 	lw	v0,20(s8)
80001388:	ac430000 	sw	v1,0(v0)
8000138c:	8fc20014 	lw	v0,20(s8)
80001390:	24420008 	addiu	v0,v0,8
80001394:	8fc30028 	lw	v1,40(s8)
80001398:	ac430000 	sw	v1,0(v0)
8000139c:	8fc20014 	lw	v0,20(s8)
800013a0:	24420004 	addiu	v0,v0,4
800013a4:	8fc30020 	lw	v1,32(s8)
800013a8:	ac430000 	sw	v1,0(v0)
800013ac:	8fc20014 	lw	v0,20(s8)
800013b0:	24420014 	addiu	v0,v0,20
800013b4:	24030001 	li	v1,1
800013b8:	ac430000 	sw	v1,0(v0)
800013bc:	8fc20014 	lw	v0,20(s8)
800013c0:	2442000c 	addiu	v0,v0,12
800013c4:	24030002 	li	v1,2
800013c8:	ac430000 	sw	v1,0(v0)
800013cc:	00001021 	move	v0,zero
800013d0:	03c0e821 	move	sp,s8
800013d4:	8fbf001c 	lw	ra,28(sp)
800013d8:	8fbe0018 	lw	s8,24(sp)
800013dc:	27bd0020 	addiu	sp,sp,32
800013e0:	03e00008 	jr	ra
800013e4:	00000000 	nop

800013e8 <_ioc_read>:
800013e8:	27bdffe0 	addiu	sp,sp,-32
800013ec:	afbf001c 	sw	ra,28(sp)
800013f0:	afbe0018 	sw	s8,24(sp)
800013f4:	03a0f021 	move	s8,sp
800013f8:	afc40020 	sw	a0,32(s8)
800013fc:	afc50024 	sw	a1,36(s8)
80001400:	afc60028 	sw	a2,40(s8)
80001404:	3c029200 	lui	v0,0x9200
80001408:	24420000 	addiu	v0,v0,0
8000140c:	afc20014 	sw	v0,20(s8)
80001410:	8fc20014 	lw	v0,20(s8)
80001414:	2442001c 	addiu	v0,v0,28
80001418:	8c420000 	lw	v0,0(v0)
8000141c:	afc20010 	sw	v0,16(s8)
80001420:	8fc20024 	lw	v0,36(s8)
80001424:	04400008 	bltz	v0,80001448 <_ioc_read+0x60>
80001428:	00000000 	nop
8000142c:	8fc30010 	lw	v1,16(s8)
80001430:	8fc20028 	lw	v0,40(s8)
80001434:	70621802 	mul	v1,v1,v0
80001438:	8fc20024 	lw	v0,36(s8)
8000143c:	00621021 	addu	v0,v1,v0
80001440:	04410004 	bgez	v0,80001454 <_ioc_read+0x6c>
80001444:	00000000 	nop
80001448:	24020001 	li	v0,1
8000144c:	0800052b 	j	800014ac <_ioc_read+0xc4>
80001450:	00000000 	nop
80001454:	0c0004a4 	jal	80001290 <_ioc_get_lock>
80001458:	00000000 	nop
8000145c:	8fc30024 	lw	v1,36(s8)
80001460:	8fc20014 	lw	v0,20(s8)
80001464:	ac430000 	sw	v1,0(v0)
80001468:	8fc20014 	lw	v0,20(s8)
8000146c:	24420008 	addiu	v0,v0,8
80001470:	8fc30028 	lw	v1,40(s8)
80001474:	ac430000 	sw	v1,0(v0)
80001478:	8fc20014 	lw	v0,20(s8)
8000147c:	24420004 	addiu	v0,v0,4
80001480:	8fc30020 	lw	v1,32(s8)
80001484:	ac430000 	sw	v1,0(v0)
80001488:	8fc20014 	lw	v0,20(s8)
8000148c:	24420014 	addiu	v0,v0,20
80001490:	24030001 	li	v1,1
80001494:	ac430000 	sw	v1,0(v0)
80001498:	8fc20014 	lw	v0,20(s8)
8000149c:	2442000c 	addiu	v0,v0,12
800014a0:	24030001 	li	v1,1
800014a4:	ac430000 	sw	v1,0(v0)
800014a8:	00001021 	move	v0,zero
800014ac:	03c0e821 	move	sp,s8
800014b0:	8fbf001c 	lw	ra,28(sp)
800014b4:	8fbe0018 	lw	s8,24(sp)
800014b8:	27bd0020 	addiu	sp,sp,32
800014bc:	03e00008 	jr	ra
800014c0:	00000000 	nop

800014c4 <_ioc_completed>:
800014c4:	27bdfff0 	addiu	sp,sp,-16
800014c8:	afbe000c 	sw	s8,12(sp)
800014cc:	08000536 	j	800014d8 <_ioc_completed+0x14>
800014d0:	03a0f021 	move	s8,sp
800014d4:	00000000 	nop
800014d8:	3c028200 	lui	v0,0x8200
800014dc:	90420046 	lbu	v0,70(v0)
800014e0:	304200ff 	andi	v0,v0,0xff
800014e4:	1040fffb 	beqz	v0,800014d4 <_ioc_completed+0x10>
800014e8:	00000000 	nop
800014ec:	3c028200 	lui	v0,0x8200
800014f0:	90420045 	lbu	v0,69(v0)
800014f4:	304300ff 	andi	v1,v0,0xff
800014f8:	24020002 	li	v0,2
800014fc:	1062000a 	beq	v1,v0,80001528 <_ioc_completed+0x64>
80001500:	00000000 	nop
80001504:	3c028200 	lui	v0,0x8200
80001508:	90420045 	lbu	v0,69(v0)
8000150c:	304300ff 	andi	v1,v0,0xff
80001510:	24020003 	li	v0,3
80001514:	10620004 	beq	v1,v0,80001528 <_ioc_completed+0x64>
80001518:	00000000 	nop
8000151c:	24020001 	li	v0,1
80001520:	0800054b 	j	8000152c <_ioc_completed+0x68>
80001524:	afc20000 	sw	v0,0(s8)
80001528:	afc00000 	sw	zero,0(s8)
8000152c:	3c028200 	lui	v0,0x8200
80001530:	a0400046 	sb	zero,70(v0)
80001534:	3c028200 	lui	v0,0x8200
80001538:	ac400048 	sw	zero,72(v0)
8000153c:	8fc20000 	lw	v0,0(s8)
80001540:	03c0e821 	move	sp,s8
80001544:	8fbe000c 	lw	s8,12(sp)
80001548:	03e00008 	jr	ra
8000154c:	27bd0010 	addiu	sp,sp,16

80001550 <_fb_sync_write>:
80001550:	27bdffe0 	addiu	sp,sp,-32
80001554:	afbf001c 	sw	ra,28(sp)
80001558:	afbe0018 	sw	s8,24(sp)
8000155c:	03a0f021 	move	s8,sp
80001560:	afc40020 	sw	a0,32(s8)
80001564:	afc50024 	sw	a1,36(s8)
80001568:	afc60028 	sw	a2,40(s8)
8000156c:	8fc20024 	lw	v0,36(s8)
80001570:	04400006 	bltz	v0,8000158c <_fb_sync_write+0x3c>
80001574:	00000000 	nop
80001578:	8fc30024 	lw	v1,36(s8)
8000157c:	8fc20028 	lw	v0,40(s8)
80001580:	00621021 	addu	v0,v1,v0
80001584:	04410004 	bgez	v0,80001598 <_fb_sync_write+0x48>
80001588:	00000000 	nop
8000158c:	24020001 	li	v0,1
80001590:	08000571 	j	800015c4 <_fb_sync_write+0x74>
80001594:	00000000 	nop
80001598:	3c029600 	lui	v0,0x9600
8000159c:	24430000 	addiu	v1,v0,0
800015a0:	8fc20020 	lw	v0,32(s8)
800015a4:	00621021 	addu	v0,v1,v0
800015a8:	afc20010 	sw	v0,16(s8)
800015ac:	8fc40010 	lw	a0,16(s8)
800015b0:	8fc50024 	lw	a1,36(s8)
800015b4:	8fc60028 	lw	a2,40(s8)
800015b8:	0c00027f 	jal	800009fc <memcpy>
800015bc:	00000000 	nop
800015c0:	00001021 	move	v0,zero
800015c4:	03c0e821 	move	sp,s8
800015c8:	8fbf001c 	lw	ra,28(sp)
800015cc:	8fbe0018 	lw	s8,24(sp)
800015d0:	27bd0020 	addiu	sp,sp,32
800015d4:	03e00008 	jr	ra
800015d8:	00000000 	nop

800015dc <_fb_sync_read>:
800015dc:	27bdffe0 	addiu	sp,sp,-32
800015e0:	afbf001c 	sw	ra,28(sp)
800015e4:	afbe0018 	sw	s8,24(sp)
800015e8:	03a0f021 	move	s8,sp
800015ec:	afc40020 	sw	a0,32(s8)
800015f0:	afc50024 	sw	a1,36(s8)
800015f4:	afc60028 	sw	a2,40(s8)
800015f8:	8fc20024 	lw	v0,36(s8)
800015fc:	04400006 	bltz	v0,80001618 <_fb_sync_read+0x3c>
80001600:	00000000 	nop
80001604:	8fc30024 	lw	v1,36(s8)
80001608:	8fc20028 	lw	v0,40(s8)
8000160c:	00621021 	addu	v0,v1,v0
80001610:	04410004 	bgez	v0,80001624 <_fb_sync_read+0x48>
80001614:	00000000 	nop
80001618:	24020001 	li	v0,1
8000161c:	08000594 	j	80001650 <_fb_sync_read+0x74>
80001620:	00000000 	nop
80001624:	3c029600 	lui	v0,0x9600
80001628:	24430000 	addiu	v1,v0,0
8000162c:	8fc20020 	lw	v0,32(s8)
80001630:	00621021 	addu	v0,v1,v0
80001634:	afc20010 	sw	v0,16(s8)
80001638:	8fc40024 	lw	a0,36(s8)
8000163c:	8fc50010 	lw	a1,16(s8)
80001640:	8fc60028 	lw	a2,40(s8)
80001644:	0c00027f 	jal	800009fc <memcpy>
80001648:	00000000 	nop
8000164c:	00001021 	move	v0,zero
80001650:	03c0e821 	move	sp,s8
80001654:	8fbf001c 	lw	ra,28(sp)
80001658:	8fbe0018 	lw	s8,24(sp)
8000165c:	27bd0020 	addiu	sp,sp,32
80001660:	03e00008 	jr	ra
80001664:	00000000 	nop

80001668 <_fb_write>:
80001668:	27bdffd0 	addiu	sp,sp,-48
8000166c:	afbf002c 	sw	ra,44(sp)
80001670:	afbe0028 	sw	s8,40(sp)
80001674:	03a0f021 	move	s8,sp
80001678:	afc40030 	sw	a0,48(s8)
8000167c:	afc50034 	sw	a1,52(s8)
80001680:	afc60038 	sw	a2,56(s8)
80001684:	8fc20034 	lw	v0,52(s8)
80001688:	04400006 	bltz	v0,800016a4 <_fb_write+0x3c>
8000168c:	00000000 	nop
80001690:	8fc30034 	lw	v1,52(s8)
80001694:	8fc20038 	lw	v0,56(s8)
80001698:	00621021 	addu	v0,v1,v0
8000169c:	04410003 	bgez	v0,800016ac <_fb_write+0x44>
800016a0:	00000000 	nop
800016a4:	080005e7 	j	8000179c <_fb_write+0x134>
800016a8:	24020001 	li	v0,1
800016ac:	0c0002c2 	jal	80000b08 <_procid>
800016b0:	00000000 	nop
800016b4:	afc20018 	sw	v0,24(s8)
800016b8:	3c029600 	lui	v0,0x9600
800016bc:	24430000 	addiu	v1,v0,0
800016c0:	8fc20030 	lw	v0,48(s8)
800016c4:	00621021 	addu	v0,v1,v0
800016c8:	afc20020 	sw	v0,32(s8)
800016cc:	3c029300 	lui	v0,0x9300
800016d0:	24430000 	addiu	v1,v0,0
800016d4:	8fc20018 	lw	v0,24(s8)
800016d8:	00021300 	sll	v0,v0,0xc
800016dc:	00621021 	addu	v0,v1,v0
800016e0:	080005ca 	j	80001728 <_fb_write+0xc0>
800016e4:	afc2001c 	sw	v0,28(s8)
800016e8:	0c0002cd 	jal	80000b34 <_proctime>
800016ec:	00000000 	nop
800016f0:	00021100 	sll	v0,v0,0x4
800016f4:	304200ff 	andi	v0,v0,0xff
800016f8:	afc20014 	sw	v0,20(s8)
800016fc:	080005c5 	j	80001714 <_fb_write+0xac>
80001700:	afc00010 	sw	zero,16(s8)
80001704:	00000000 	nop
80001708:	8fc20010 	lw	v0,16(s8)
8000170c:	24420001 	addiu	v0,v0,1
80001710:	afc20010 	sw	v0,16(s8)
80001714:	8fc30010 	lw	v1,16(s8)
80001718:	8fc20014 	lw	v0,20(s8)
8000171c:	0062102b 	sltu	v0,v1,v0
80001720:	1440fff8 	bnez	v0,80001704 <_fb_write+0x9c>
80001724:	00000000 	nop
80001728:	8fc30018 	lw	v1,24(s8)
8000172c:	3c028200 	lui	v0,0x8200
80001730:	24420044 	addiu	v0,v0,68
80001734:	00621021 	addu	v0,v1,v0
80001738:	90420000 	lbu	v0,0(v0)
8000173c:	304200ff 	andi	v0,v0,0xff
80001740:	1440ffe9 	bnez	v0,800016e8 <_fb_write+0x80>
80001744:	00000000 	nop
80001748:	8fc30018 	lw	v1,24(s8)
8000174c:	3c028200 	lui	v0,0x8200
80001750:	24420044 	addiu	v0,v0,68
80001754:	00621021 	addu	v0,v1,v0
80001758:	24030001 	li	v1,1
8000175c:	a0430000 	sb	v1,0(v0)
80001760:	8fc2001c 	lw	v0,28(s8)
80001764:	24420010 	addiu	v0,v0,16
80001768:	ac400000 	sw	zero,0(v0)
8000176c:	8fc30034 	lw	v1,52(s8)
80001770:	8fc2001c 	lw	v0,28(s8)
80001774:	ac430000 	sw	v1,0(v0)
80001778:	8fc2001c 	lw	v0,28(s8)
8000177c:	24420004 	addiu	v0,v0,4
80001780:	8fc30020 	lw	v1,32(s8)
80001784:	ac430000 	sw	v1,0(v0)
80001788:	8fc2001c 	lw	v0,28(s8)
8000178c:	24420008 	addiu	v0,v0,8
80001790:	8fc30038 	lw	v1,56(s8)
80001794:	ac430000 	sw	v1,0(v0)
80001798:	00001021 	move	v0,zero
8000179c:	03c0e821 	move	sp,s8
800017a0:	8fbf002c 	lw	ra,44(sp)
800017a4:	8fbe0028 	lw	s8,40(sp)
800017a8:	03e00008 	jr	ra
800017ac:	27bd0030 	addiu	sp,sp,48

800017b0 <_fb_read>:
800017b0:	27bdffd0 	addiu	sp,sp,-48
800017b4:	afbf002c 	sw	ra,44(sp)
800017b8:	afbe0028 	sw	s8,40(sp)
800017bc:	03a0f021 	move	s8,sp
800017c0:	afc40030 	sw	a0,48(s8)
800017c4:	afc50034 	sw	a1,52(s8)
800017c8:	afc60038 	sw	a2,56(s8)
800017cc:	8fc20034 	lw	v0,52(s8)
800017d0:	04400006 	bltz	v0,800017ec <_fb_read+0x3c>
800017d4:	00000000 	nop
800017d8:	8fc30034 	lw	v1,52(s8)
800017dc:	8fc20038 	lw	v0,56(s8)
800017e0:	00621021 	addu	v0,v1,v0
800017e4:	04410003 	bgez	v0,800017f4 <_fb_read+0x44>
800017e8:	00000000 	nop
800017ec:	08000639 	j	800018e4 <_fb_read+0x134>
800017f0:	24020001 	li	v0,1
800017f4:	0c0002c2 	jal	80000b08 <_procid>
800017f8:	00000000 	nop
800017fc:	afc20018 	sw	v0,24(s8)
80001800:	3c029600 	lui	v0,0x9600
80001804:	24430000 	addiu	v1,v0,0
80001808:	8fc20030 	lw	v0,48(s8)
8000180c:	00621021 	addu	v0,v1,v0
80001810:	afc20020 	sw	v0,32(s8)
80001814:	3c029300 	lui	v0,0x9300
80001818:	24430000 	addiu	v1,v0,0
8000181c:	8fc20018 	lw	v0,24(s8)
80001820:	00021300 	sll	v0,v0,0xc
80001824:	00621021 	addu	v0,v1,v0
80001828:	0800061c 	j	80001870 <_fb_read+0xc0>
8000182c:	afc2001c 	sw	v0,28(s8)
80001830:	0c0002cd 	jal	80000b34 <_proctime>
80001834:	00000000 	nop
80001838:	00021100 	sll	v0,v0,0x4
8000183c:	304200ff 	andi	v0,v0,0xff
80001840:	afc20014 	sw	v0,20(s8)
80001844:	08000617 	j	8000185c <_fb_read+0xac>
80001848:	afc00010 	sw	zero,16(s8)
8000184c:	00000000 	nop
80001850:	8fc20010 	lw	v0,16(s8)
80001854:	24420001 	addiu	v0,v0,1
80001858:	afc20010 	sw	v0,16(s8)
8000185c:	8fc30010 	lw	v1,16(s8)
80001860:	8fc20014 	lw	v0,20(s8)
80001864:	0062102b 	sltu	v0,v1,v0
80001868:	1440fff8 	bnez	v0,8000184c <_fb_read+0x9c>
8000186c:	00000000 	nop
80001870:	8fc30018 	lw	v1,24(s8)
80001874:	3c028200 	lui	v0,0x8200
80001878:	24420044 	addiu	v0,v0,68
8000187c:	00621021 	addu	v0,v1,v0
80001880:	90420000 	lbu	v0,0(v0)
80001884:	304200ff 	andi	v0,v0,0xff
80001888:	1440ffe9 	bnez	v0,80001830 <_fb_read+0x80>
8000188c:	00000000 	nop
80001890:	8fc30018 	lw	v1,24(s8)
80001894:	3c028200 	lui	v0,0x8200
80001898:	24420044 	addiu	v0,v0,68
8000189c:	00621021 	addu	v0,v1,v0
800018a0:	24030001 	li	v1,1
800018a4:	a0430000 	sb	v1,0(v0)
800018a8:	8fc2001c 	lw	v0,28(s8)
800018ac:	24420010 	addiu	v0,v0,16
800018b0:	ac400000 	sw	zero,0(v0)
800018b4:	8fc30020 	lw	v1,32(s8)
800018b8:	8fc2001c 	lw	v0,28(s8)
800018bc:	ac430000 	sw	v1,0(v0)
800018c0:	8fc2001c 	lw	v0,28(s8)
800018c4:	24420004 	addiu	v0,v0,4
800018c8:	8fc30034 	lw	v1,52(s8)
800018cc:	ac430000 	sw	v1,0(v0)
800018d0:	8fc2001c 	lw	v0,28(s8)
800018d4:	24420008 	addiu	v0,v0,8
800018d8:	8fc30038 	lw	v1,56(s8)
800018dc:	ac430000 	sw	v1,0(v0)
800018e0:	00001021 	move	v0,zero
800018e4:	03c0e821 	move	sp,s8
800018e8:	8fbf002c 	lw	ra,44(sp)
800018ec:	8fbe0028 	lw	s8,40(sp)
800018f0:	03e00008 	jr	ra
800018f4:	27bd0030 	addiu	sp,sp,48

800018f8 <_fb_completed>:
800018f8:	27bdffe0 	addiu	sp,sp,-32
800018fc:	afbf001c 	sw	ra,28(sp)
80001900:	afbe0018 	sw	s8,24(sp)
80001904:	0c0002c2 	jal	80000b08 <_procid>
80001908:	03a0f021 	move	s8,sp
8000190c:	08000646 	j	80001918 <_fb_completed+0x20>
80001910:	afc20010 	sw	v0,16(s8)
80001914:	00000000 	nop
80001918:	8fc30010 	lw	v1,16(s8)
8000191c:	3c028200 	lui	v0,0x8200
80001920:	24420044 	addiu	v0,v0,68
80001924:	00621021 	addu	v0,v1,v0
80001928:	90420000 	lbu	v0,0(v0)
8000192c:	304200ff 	andi	v0,v0,0xff
80001930:	1440fff8 	bnez	v0,80001914 <_fb_completed+0x1c>
80001934:	00000000 	nop
80001938:	8fc30010 	lw	v1,16(s8)
8000193c:	3c028200 	lui	v0,0x8200
80001940:	00031880 	sll	v1,v1,0x2
80001944:	24420040 	addiu	v0,v0,64
80001948:	00621021 	addu	v0,v1,v0
8000194c:	8c420000 	lw	v0,0(v0)
80001950:	10400003 	beqz	v0,80001960 <_fb_completed+0x68>
80001954:	00000000 	nop
80001958:	08000659 	j	80001964 <_fb_completed+0x6c>
8000195c:	24020001 	li	v0,1
80001960:	00001021 	move	v0,zero
80001964:	03c0e821 	move	sp,s8
80001968:	8fbf001c 	lw	ra,28(sp)
8000196c:	8fbe0018 	lw	s8,24(sp)
80001970:	03e00008 	jr	ra
80001974:	27bd0020 	addiu	sp,sp,32

80001978 <_get_epc>:
80001978:	27bdfff0 	addiu	sp,sp,-16
8000197c:	afbe000c 	sw	s8,12(sp)
80001980:	03a0f021 	move	s8,sp
80001984:	40027000 	mfc0	v0,c0_epc
80001988:	afc20000 	sw	v0,0(s8)
8000198c:	8fc20000 	lw	v0,0(s8)
80001990:	03c0e821 	move	sp,s8
80001994:	8fbe000c 	lw	s8,12(sp)
80001998:	03e00008 	jr	ra
8000199c:	27bd0010 	addiu	sp,sp,16

800019a0 <_get_bar>:
800019a0:	27bdfff0 	addiu	sp,sp,-16
800019a4:	afbe000c 	sw	s8,12(sp)
800019a8:	03a0f021 	move	s8,sp
800019ac:	40024000 	mfc0	v0,c0_badvaddr
800019b0:	afc20000 	sw	v0,0(s8)
800019b4:	8fc20000 	lw	v0,0(s8)
800019b8:	03c0e821 	move	sp,s8
800019bc:	8fbe000c 	lw	s8,12(sp)
800019c0:	03e00008 	jr	ra
800019c4:	27bd0010 	addiu	sp,sp,16

800019c8 <_get_cause>:
800019c8:	27bdfff0 	addiu	sp,sp,-16
800019cc:	afbe000c 	sw	s8,12(sp)
800019d0:	03a0f021 	move	s8,sp
800019d4:	40026800 	mfc0	v0,c0_cause
800019d8:	afc20000 	sw	v0,0(s8)
800019dc:	8fc20000 	lw	v0,0(s8)
800019e0:	03c0e821 	move	sp,s8
800019e4:	8fbe000c 	lw	s8,12(sp)
800019e8:	03e00008 	jr	ra
800019ec:	27bd0010 	addiu	sp,sp,16

800019f0 <_cause>:
800019f0:	27bdffd8 	addiu	sp,sp,-40
800019f4:	afbf0024 	sw	ra,36(sp)
800019f8:	afbe0020 	sw	s8,32(sp)
800019fc:	03a0f021 	move	s8,sp
80001a00:	afc40028 	sw	a0,40(s8)
80001a04:	3c028100 	lui	v0,0x8100
80001a08:	244201e8 	addiu	v0,v0,488
80001a0c:	afc2001c 	sw	v0,28(s8)
80001a10:	8fc30028 	lw	v1,40(s8)
80001a14:	3c028100 	lui	v0,0x8100
80001a18:	00031880 	sll	v1,v1,0x2
80001a1c:	2442029c 	addiu	v0,v0,668
80001a20:	00621021 	addu	v0,v1,v0
80001a24:	8c420000 	lw	v0,0(v0)
80001a28:	00402021 	move	a0,v0
80001a2c:	0c000100 	jal	80000400 <_putk>
80001a30:	00000000 	nop
80001a34:	3c028100 	lui	v0,0x8100
80001a38:	244401f4 	addiu	a0,v0,500
80001a3c:	0c000100 	jal	80000400 <_putk>
80001a40:	00000000 	nop
80001a44:	0c00065e 	jal	80001978 <_get_epc>
80001a48:	00000000 	nop
80001a4c:	afc20018 	sw	v0,24(s8)
80001a50:	8fc2001c 	lw	v0,28(s8)
80001a54:	24420002 	addiu	v0,v0,2
80001a58:	8fc40018 	lw	a0,24(s8)
80001a5c:	00402821 	move	a1,v0
80001a60:	0c0001bf 	jal	800006fc <_itoa_hex>
80001a64:	00000000 	nop
80001a68:	8fc4001c 	lw	a0,28(s8)
80001a6c:	0c000100 	jal	80000400 <_putk>
80001a70:	00000000 	nop
80001a74:	3c028100 	lui	v0,0x8100
80001a78:	244401fc 	addiu	a0,v0,508
80001a7c:	0c000100 	jal	80000400 <_putk>
80001a80:	00000000 	nop
80001a84:	0c000668 	jal	800019a0 <_get_bar>
80001a88:	00000000 	nop
80001a8c:	afc20014 	sw	v0,20(s8)
80001a90:	8fc2001c 	lw	v0,28(s8)
80001a94:	24420002 	addiu	v0,v0,2
80001a98:	8fc40014 	lw	a0,20(s8)
80001a9c:	00402821 	move	a1,v0
80001aa0:	0c0001bf 	jal	800006fc <_itoa_hex>
80001aa4:	00000000 	nop
80001aa8:	8fc4001c 	lw	a0,28(s8)
80001aac:	0c000100 	jal	80000400 <_putk>
80001ab0:	00000000 	nop
80001ab4:	3c028100 	lui	v0,0x8100
80001ab8:	24440204 	addiu	a0,v0,516
80001abc:	0c000100 	jal	80000400 <_putk>
80001ac0:	00000000 	nop
80001ac4:	0c000672 	jal	800019c8 <_get_cause>
80001ac8:	00000000 	nop
80001acc:	afc20010 	sw	v0,16(s8)
80001ad0:	8fc2001c 	lw	v0,28(s8)
80001ad4:	24420002 	addiu	v0,v0,2
80001ad8:	8fc40010 	lw	a0,16(s8)
80001adc:	00402821 	move	a1,v0
80001ae0:	0c0001bf 	jal	800006fc <_itoa_hex>
80001ae4:	00000000 	nop
80001ae8:	8fc4001c 	lw	a0,28(s8)
80001aec:	0c000100 	jal	80000400 <_putk>
80001af0:	00000000 	nop
80001af4:	0c000120 	jal	80000480 <_exit>
80001af8:	00000000 	nop

80001afc <_cause_ukn>:
80001afc:	27bdffe8 	addiu	sp,sp,-24
80001b00:	afbf0014 	sw	ra,20(sp)
80001b04:	afbe0010 	sw	s8,16(sp)
80001b08:	03a0f021 	move	s8,sp
80001b0c:	00002021 	move	a0,zero
80001b10:	0c00067c 	jal	800019f0 <_cause>
80001b14:	00000000 	nop
80001b18:	03c0e821 	move	sp,s8
80001b1c:	8fbf0014 	lw	ra,20(sp)
80001b20:	8fbe0010 	lw	s8,16(sp)
80001b24:	27bd0018 	addiu	sp,sp,24
80001b28:	03e00008 	jr	ra
80001b2c:	00000000 	nop

80001b30 <_cause_adel>:
80001b30:	27bdffe8 	addiu	sp,sp,-24
80001b34:	afbf0014 	sw	ra,20(sp)
80001b38:	afbe0010 	sw	s8,16(sp)
80001b3c:	03a0f021 	move	s8,sp
80001b40:	24040001 	li	a0,1
80001b44:	0c00067c 	jal	800019f0 <_cause>
80001b48:	00000000 	nop
80001b4c:	03c0e821 	move	sp,s8
80001b50:	8fbf0014 	lw	ra,20(sp)
80001b54:	8fbe0010 	lw	s8,16(sp)
80001b58:	27bd0018 	addiu	sp,sp,24
80001b5c:	03e00008 	jr	ra
80001b60:	00000000 	nop

80001b64 <_cause_ades>:
80001b64:	27bdffe8 	addiu	sp,sp,-24
80001b68:	afbf0014 	sw	ra,20(sp)
80001b6c:	afbe0010 	sw	s8,16(sp)
80001b70:	03a0f021 	move	s8,sp
80001b74:	24040002 	li	a0,2
80001b78:	0c00067c 	jal	800019f0 <_cause>
80001b7c:	00000000 	nop
80001b80:	03c0e821 	move	sp,s8
80001b84:	8fbf0014 	lw	ra,20(sp)
80001b88:	8fbe0010 	lw	s8,16(sp)
80001b8c:	27bd0018 	addiu	sp,sp,24
80001b90:	03e00008 	jr	ra
80001b94:	00000000 	nop

80001b98 <_cause_ibe>:
80001b98:	27bdffe8 	addiu	sp,sp,-24
80001b9c:	afbf0014 	sw	ra,20(sp)
80001ba0:	afbe0010 	sw	s8,16(sp)
80001ba4:	03a0f021 	move	s8,sp
80001ba8:	24040003 	li	a0,3
80001bac:	0c00067c 	jal	800019f0 <_cause>
80001bb0:	00000000 	nop
80001bb4:	03c0e821 	move	sp,s8
80001bb8:	8fbf0014 	lw	ra,20(sp)
80001bbc:	8fbe0010 	lw	s8,16(sp)
80001bc0:	27bd0018 	addiu	sp,sp,24
80001bc4:	03e00008 	jr	ra
80001bc8:	00000000 	nop

80001bcc <_cause_dbe>:
80001bcc:	27bdffe8 	addiu	sp,sp,-24
80001bd0:	afbf0014 	sw	ra,20(sp)
80001bd4:	afbe0010 	sw	s8,16(sp)
80001bd8:	03a0f021 	move	s8,sp
80001bdc:	24040004 	li	a0,4
80001be0:	0c00067c 	jal	800019f0 <_cause>
80001be4:	00000000 	nop
80001be8:	03c0e821 	move	sp,s8
80001bec:	8fbf0014 	lw	ra,20(sp)
80001bf0:	8fbe0010 	lw	s8,16(sp)
80001bf4:	27bd0018 	addiu	sp,sp,24
80001bf8:	03e00008 	jr	ra
80001bfc:	00000000 	nop

80001c00 <_cause_bp>:
80001c00:	27bdffe8 	addiu	sp,sp,-24
80001c04:	afbf0014 	sw	ra,20(sp)
80001c08:	afbe0010 	sw	s8,16(sp)
80001c0c:	03a0f021 	move	s8,sp
80001c10:	24040005 	li	a0,5
80001c14:	0c00067c 	jal	800019f0 <_cause>
80001c18:	00000000 	nop
80001c1c:	03c0e821 	move	sp,s8
80001c20:	8fbf0014 	lw	ra,20(sp)
80001c24:	8fbe0010 	lw	s8,16(sp)
80001c28:	27bd0018 	addiu	sp,sp,24
80001c2c:	03e00008 	jr	ra
80001c30:	00000000 	nop

80001c34 <_cause_ri>:
80001c34:	27bdffe8 	addiu	sp,sp,-24
80001c38:	afbf0014 	sw	ra,20(sp)
80001c3c:	afbe0010 	sw	s8,16(sp)
80001c40:	03a0f021 	move	s8,sp
80001c44:	24040006 	li	a0,6
80001c48:	0c00067c 	jal	800019f0 <_cause>
80001c4c:	00000000 	nop
80001c50:	03c0e821 	move	sp,s8
80001c54:	8fbf0014 	lw	ra,20(sp)
80001c58:	8fbe0010 	lw	s8,16(sp)
80001c5c:	27bd0018 	addiu	sp,sp,24
80001c60:	03e00008 	jr	ra
80001c64:	00000000 	nop

80001c68 <_cause_cpu>:
80001c68:	27bdffe8 	addiu	sp,sp,-24
80001c6c:	afbf0014 	sw	ra,20(sp)
80001c70:	afbe0010 	sw	s8,16(sp)
80001c74:	03a0f021 	move	s8,sp
80001c78:	24040007 	li	a0,7
80001c7c:	0c00067c 	jal	800019f0 <_cause>
80001c80:	00000000 	nop
80001c84:	03c0e821 	move	sp,s8
80001c88:	8fbf0014 	lw	ra,20(sp)
80001c8c:	8fbe0010 	lw	s8,16(sp)
80001c90:	27bd0018 	addiu	sp,sp,24
80001c94:	03e00008 	jr	ra
80001c98:	00000000 	nop

80001c9c <_cause_ovf>:
80001c9c:	27bdffe8 	addiu	sp,sp,-24
80001ca0:	afbf0014 	sw	ra,20(sp)
80001ca4:	afbe0010 	sw	s8,16(sp)
80001ca8:	03a0f021 	move	s8,sp
80001cac:	24040008 	li	a0,8
80001cb0:	0c00067c 	jal	800019f0 <_cause>
80001cb4:	00000000 	nop
80001cb8:	03c0e821 	move	sp,s8
80001cbc:	8fbf0014 	lw	ra,20(sp)
80001cc0:	8fbe0010 	lw	s8,16(sp)
80001cc4:	27bd0018 	addiu	sp,sp,24
80001cc8:	03e00008 	jr	ra
80001ccc:	00000000 	nop

80001cd0 <_int_demux>:
80001cd0:	27bdffe0 	addiu	sp,sp,-32
80001cd4:	afbf001c 	sw	ra,28(sp)
80001cd8:	afbe0018 	sw	s8,24(sp)
80001cdc:	03a0f021 	move	s8,sp
80001ce0:	27c20014 	addiu	v0,s8,20
80001ce4:	24040004 	li	a0,4
80001ce8:	00402821 	move	a1,v0
80001cec:	0c000449 	jal	80001124 <_icu_read>
80001cf0:	00000000 	nop
80001cf4:	14400012 	bnez	v0,80001d40 <_int_demux+0x70>
80001cf8:	00000000 	nop
80001cfc:	8fc20014 	lw	v0,20(s8)
80001d00:	28420020 	slti	v0,v0,32
80001d04:	1040000d 	beqz	v0,80001d3c <_int_demux+0x6c>
80001d08:	00000000 	nop
80001d0c:	8fc30014 	lw	v1,20(s8)
80001d10:	3c028100 	lui	v0,0x8100
80001d14:	00031880 	sll	v1,v1,0x2
80001d18:	244202bc 	addiu	v0,v0,700
80001d1c:	00621021 	addu	v0,v1,v0
80001d20:	8c420000 	lw	v0,0(v0)
80001d24:	afc20010 	sw	v0,16(s8)
80001d28:	8fc20010 	lw	v0,16(s8)
80001d2c:	0040f809 	jalr	v0
80001d30:	00000000 	nop
80001d34:	08000750 	j	80001d40 <_int_demux+0x70>
80001d38:	00000000 	nop
80001d3c:	00000000 	nop
80001d40:	03c0e821 	move	sp,s8
80001d44:	8fbf001c 	lw	ra,28(sp)
80001d48:	8fbe0018 	lw	s8,24(sp)
80001d4c:	27bd0020 	addiu	sp,sp,32
80001d50:	03e00008 	jr	ra
80001d54:	00000000 	nop

80001d58 <_isr_default>:
80001d58:	27bdffe8 	addiu	sp,sp,-24
80001d5c:	afbf0014 	sw	ra,20(sp)
80001d60:	afbe0010 	sw	s8,16(sp)
80001d64:	03a0f021 	move	s8,sp
80001d68:	3c028100 	lui	v0,0x8100
80001d6c:	24440210 	addiu	a0,v0,528
80001d70:	0c000100 	jal	80000400 <_putk>
80001d74:	00000000 	nop
80001d78:	03c0e821 	move	sp,s8
80001d7c:	8fbf0014 	lw	ra,20(sp)
80001d80:	8fbe0010 	lw	s8,16(sp)
80001d84:	27bd0018 	addiu	sp,sp,24
80001d88:	03e00008 	jr	ra
80001d8c:	00000000 	nop

80001d90 <_isr_dma>:
80001d90:	27bdffe0 	addiu	sp,sp,-32
80001d94:	afbf001c 	sw	ra,28(sp)
80001d98:	afbe0018 	sw	s8,24(sp)
80001d9c:	03a0f021 	move	s8,sp
80001da0:	0c0002c2 	jal	80000b08 <_procid>
80001da4:	00000000 	nop
80001da8:	afc20010 	sw	v0,16(s8)
80001dac:	3c029300 	lui	v0,0x9300
80001db0:	24430000 	addiu	v1,v0,0
80001db4:	8fc20010 	lw	v0,16(s8)
80001db8:	00021300 	sll	v0,v0,0xc
80001dbc:	00621021 	addu	v0,v1,v0
80001dc0:	afc20014 	sw	v0,20(s8)
80001dc4:	8fc40010 	lw	a0,16(s8)
80001dc8:	8fc20014 	lw	v0,20(s8)
80001dcc:	24420008 	addiu	v0,v0,8
80001dd0:	8c430000 	lw	v1,0(v0)
80001dd4:	3c028200 	lui	v0,0x8200
80001dd8:	00042080 	sll	a0,a0,0x2
80001ddc:	24420040 	addiu	v0,v0,64
80001de0:	00821021 	addu	v0,a0,v0
80001de4:	ac430000 	sw	v1,0(v0)
80001de8:	8fc30010 	lw	v1,16(s8)
80001dec:	3c028200 	lui	v0,0x8200
80001df0:	24420044 	addiu	v0,v0,68
80001df4:	00621021 	addu	v0,v1,v0
80001df8:	a0400000 	sb	zero,0(v0)
80001dfc:	8fc20014 	lw	v0,20(s8)
80001e00:	2442000c 	addiu	v0,v0,12
80001e04:	ac400000 	sw	zero,0(v0)
80001e08:	03c0e821 	move	sp,s8
80001e0c:	8fbf001c 	lw	ra,28(sp)
80001e10:	8fbe0018 	lw	s8,24(sp)
80001e14:	27bd0020 	addiu	sp,sp,32
80001e18:	03e00008 	jr	ra
80001e1c:	00000000 	nop

80001e20 <_isr_ioc>:
80001e20:	27bdfff0 	addiu	sp,sp,-16
80001e24:	afbe000c 	sw	s8,12(sp)
80001e28:	03a0f021 	move	s8,sp
80001e2c:	3c029200 	lui	v0,0x9200
80001e30:	24420000 	addiu	v0,v0,0
80001e34:	afc20000 	sw	v0,0(s8)
80001e38:	8fc20000 	lw	v0,0(s8)
80001e3c:	24420010 	addiu	v0,v0,16
80001e40:	8c420000 	lw	v0,0(v0)
80001e44:	304300ff 	andi	v1,v0,0xff
80001e48:	3c028200 	lui	v0,0x8200
80001e4c:	a0430045 	sb	v1,69(v0)
80001e50:	3c028200 	lui	v0,0x8200
80001e54:	24030001 	li	v1,1
80001e58:	a0430046 	sb	v1,70(v0)
80001e5c:	03c0e821 	move	sp,s8
80001e60:	8fbe000c 	lw	s8,12(sp)
80001e64:	27bd0010 	addiu	sp,sp,16
80001e68:	03e00008 	jr	ra
80001e6c:	00000000 	nop

80001e70 <_isr_timer>:
80001e70:	27bdffd8 	addiu	sp,sp,-40
80001e74:	afbf0024 	sw	ra,36(sp)
80001e78:	afbe0020 	sw	s8,32(sp)
80001e7c:	03a0f021 	move	s8,sp
80001e80:	0c0002c2 	jal	80000b08 <_procid>
80001e84:	00000000 	nop
80001e88:	afc20018 	sw	v0,24(s8)
80001e8c:	3c029100 	lui	v0,0x9100
80001e90:	24430000 	addiu	v1,v0,0
80001e94:	8fc20018 	lw	v0,24(s8)
80001e98:	00021100 	sll	v0,v0,0x4
80001e9c:	00621021 	addu	v0,v1,v0
80001ea0:	afc2001c 	sw	v0,28(s8)
80001ea4:	8fc2001c 	lw	v0,28(s8)
80001ea8:	2442000c 	addiu	v0,v0,12
80001eac:	ac400000 	sw	zero,0(v0)
80001eb0:	3c028100 	lui	v0,0x8100
80001eb4:	24440228 	addiu	a0,v0,552
80001eb8:	0c000100 	jal	80000400 <_putk>
80001ebc:	00000000 	nop
80001ec0:	3c028100 	lui	v0,0x8100
80001ec4:	24420254 	addiu	v0,v0,596
80001ec8:	afc20014 	sw	v0,20(s8)
80001ecc:	0c0002cd 	jal	80000b34 <_proctime>
80001ed0:	00000000 	nop
80001ed4:	afc20010 	sw	v0,16(s8)
80001ed8:	8fc20010 	lw	v0,16(s8)
80001edc:	00402021 	move	a0,v0
80001ee0:	8fc50014 	lw	a1,20(s8)
80001ee4:	0c000181 	jal	80000604 <_itoa_dec>
80001ee8:	00000000 	nop
80001eec:	8fc40014 	lw	a0,20(s8)
80001ef0:	0c000100 	jal	80000400 <_putk>
80001ef4:	00000000 	nop
80001ef8:	3c028100 	lui	v0,0x8100
80001efc:	24440260 	addiu	a0,v0,608
80001f00:	0c000100 	jal	80000400 <_putk>
80001f04:	00000000 	nop
80001f08:	03c0e821 	move	sp,s8
80001f0c:	8fbf0024 	lw	ra,36(sp)
80001f10:	8fbe0020 	lw	s8,32(sp)
80001f14:	27bd0028 	addiu	sp,sp,40
80001f18:	03e00008 	jr	ra
80001f1c:	00000000 	nop

80001f20 <_isr_tty_get_indexed>:
80001f20:	27bdffd8 	addiu	sp,sp,-40
80001f24:	afbf0024 	sw	ra,36(sp)
80001f28:	afbe0020 	sw	s8,32(sp)
80001f2c:	03a0f021 	move	s8,sp
80001f30:	afc40028 	sw	a0,40(s8)
80001f34:	0c0002c2 	jal	80000b08 <_procid>
80001f38:	00000000 	nop
80001f3c:	afc20014 	sw	v0,20(s8)
80001f40:	3c029000 	lui	v0,0x9000
80001f44:	24430000 	addiu	v1,v0,0
80001f48:	8fc20014 	lw	v0,20(s8)
80001f4c:	00022080 	sll	a0,v0,0x2
80001f50:	8fc20028 	lw	v0,40(s8)
80001f54:	00821021 	addu	v0,a0,v0
80001f58:	00021100 	sll	v0,v0,0x4
80001f5c:	00621021 	addu	v0,v1,v0
80001f60:	afc20018 	sw	v0,24(s8)
80001f64:	0c0002c2 	jal	80000b08 <_procid>
80001f68:	00000000 	nop
80001f6c:	00021880 	sll	v1,v0,0x2
80001f70:	8fc20028 	lw	v0,40(s8)
80001f74:	00621021 	addu	v0,v1,v0
80001f78:	afc20010 	sw	v0,16(s8)
80001f7c:	8fc40010 	lw	a0,16(s8)
80001f80:	8fc20018 	lw	v0,24(s8)
80001f84:	24420008 	addiu	v0,v0,8
80001f88:	8c420000 	lw	v0,0(v0)
80001f8c:	304300ff 	andi	v1,v0,0xff
80001f90:	3c028200 	lui	v0,0x8200
80001f94:	2442004c 	addiu	v0,v0,76
80001f98:	00821021 	addu	v0,a0,v0
80001f9c:	a0430000 	sb	v1,0(v0)
80001fa0:	8fc30010 	lw	v1,16(s8)
80001fa4:	3c028200 	lui	v0,0x8200
80001fa8:	24420050 	addiu	v0,v0,80
80001fac:	00621021 	addu	v0,v1,v0
80001fb0:	24030001 	li	v1,1
80001fb4:	a0430000 	sb	v1,0(v0)
80001fb8:	03c0e821 	move	sp,s8
80001fbc:	8fbf0024 	lw	ra,36(sp)
80001fc0:	8fbe0020 	lw	s8,32(sp)
80001fc4:	27bd0028 	addiu	sp,sp,40
80001fc8:	03e00008 	jr	ra
80001fcc:	00000000 	nop

80001fd0 <_isr_tty_get>:
80001fd0:	27bdffe8 	addiu	sp,sp,-24
80001fd4:	afbf0014 	sw	ra,20(sp)
80001fd8:	afbe0010 	sw	s8,16(sp)
80001fdc:	03a0f021 	move	s8,sp
80001fe0:	00002021 	move	a0,zero
80001fe4:	0c0007c8 	jal	80001f20 <_isr_tty_get_indexed>
80001fe8:	00000000 	nop
80001fec:	03c0e821 	move	sp,s8
80001ff0:	8fbf0014 	lw	ra,20(sp)
80001ff4:	8fbe0010 	lw	s8,16(sp)
80001ff8:	27bd0018 	addiu	sp,sp,24
80001ffc:	03e00008 	jr	ra
80002000:	00000000 	nop

80002004 <_isr_tty_get_task0>:
80002004:	27bdffe8 	addiu	sp,sp,-24
80002008:	afbf0014 	sw	ra,20(sp)
8000200c:	afbe0010 	sw	s8,16(sp)
80002010:	03a0f021 	move	s8,sp
80002014:	00002021 	move	a0,zero
80002018:	0c0007c8 	jal	80001f20 <_isr_tty_get_indexed>
8000201c:	00000000 	nop
80002020:	03c0e821 	move	sp,s8
80002024:	8fbf0014 	lw	ra,20(sp)
80002028:	8fbe0010 	lw	s8,16(sp)
8000202c:	27bd0018 	addiu	sp,sp,24
80002030:	03e00008 	jr	ra
80002034:	00000000 	nop

80002038 <_isr_tty_get_task1>:
80002038:	27bdffe8 	addiu	sp,sp,-24
8000203c:	afbf0014 	sw	ra,20(sp)
80002040:	afbe0010 	sw	s8,16(sp)
80002044:	03a0f021 	move	s8,sp
80002048:	24040001 	li	a0,1
8000204c:	0c0007c8 	jal	80001f20 <_isr_tty_get_indexed>
80002050:	00000000 	nop
80002054:	03c0e821 	move	sp,s8
80002058:	8fbf0014 	lw	ra,20(sp)
8000205c:	8fbe0010 	lw	s8,16(sp)
80002060:	27bd0018 	addiu	sp,sp,24
80002064:	03e00008 	jr	ra
80002068:	00000000 	nop

8000206c <_isr_tty_get_task2>:
8000206c:	27bdffe8 	addiu	sp,sp,-24
80002070:	afbf0014 	sw	ra,20(sp)
80002074:	afbe0010 	sw	s8,16(sp)
80002078:	03a0f021 	move	s8,sp
8000207c:	24040002 	li	a0,2
80002080:	0c0007c8 	jal	80001f20 <_isr_tty_get_indexed>
80002084:	00000000 	nop
80002088:	03c0e821 	move	sp,s8
8000208c:	8fbf0014 	lw	ra,20(sp)
80002090:	8fbe0010 	lw	s8,16(sp)
80002094:	27bd0018 	addiu	sp,sp,24
80002098:	03e00008 	jr	ra
8000209c:	00000000 	nop

800020a0 <_isr_tty_get_task3>:
800020a0:	27bdffe8 	addiu	sp,sp,-24
800020a4:	afbf0014 	sw	ra,20(sp)
800020a8:	afbe0010 	sw	s8,16(sp)
800020ac:	03a0f021 	move	s8,sp
800020b0:	24040003 	li	a0,3
800020b4:	0c0007c8 	jal	80001f20 <_isr_tty_get_indexed>
800020b8:	00000000 	nop
800020bc:	03c0e821 	move	sp,s8
800020c0:	8fbf0014 	lw	ra,20(sp)
800020c4:	8fbe0010 	lw	s8,16(sp)
800020c8:	27bd0018 	addiu	sp,sp,24
800020cc:	03e00008 	jr	ra
800020d0:	00000000 	nop

800020d4 <_isr_switch>:
800020d4:	27bdffe0 	addiu	sp,sp,-32
800020d8:	afbf001c 	sw	ra,28(sp)
800020dc:	afbe0018 	sw	s8,24(sp)
800020e0:	03a0f021 	move	s8,sp
800020e4:	0c0002c2 	jal	80000b08 <_procid>
800020e8:	00000000 	nop
800020ec:	afc20010 	sw	v0,16(s8)
800020f0:	3c029100 	lui	v0,0x9100
800020f4:	24430000 	addiu	v1,v0,0
800020f8:	8fc20010 	lw	v0,16(s8)
800020fc:	00021100 	sll	v0,v0,0x4
80002100:	00621021 	addu	v0,v1,v0
80002104:	afc20014 	sw	v0,20(s8)
80002108:	8fc20014 	lw	v0,20(s8)
8000210c:	2442000c 	addiu	v0,v0,12
80002110:	ac400000 	sw	zero,0(v0)
80002114:	0c00023a 	jal	800008e8 <_ctx_switch>
80002118:	00000000 	nop
8000211c:	03c0e821 	move	sp,s8
80002120:	8fbf001c 	lw	ra,28(sp)
80002124:	8fbe0018 	lw	s8,24(sp)
80002128:	27bd0020 	addiu	sp,sp,32
8000212c:	03e00008 	jr	ra
80002130:	00000000 	nop

80002134 <_get_epc>:
80002134:	27bdfff0 	addiu	sp,sp,-16
80002138:	afbe000c 	sw	s8,12(sp)
8000213c:	03a0f021 	move	s8,sp
80002140:	40027000 	mfc0	v0,c0_epc
80002144:	afc20000 	sw	v0,0(s8)
80002148:	8fc20000 	lw	v0,0(s8)
8000214c:	03c0e821 	move	sp,s8
80002150:	8fbe000c 	lw	s8,12(sp)
80002154:	03e00008 	jr	ra
80002158:	27bd0010 	addiu	sp,sp,16

8000215c <_sys_ukn>:
8000215c:	27bdffe0 	addiu	sp,sp,-32
80002160:	afbf001c 	sw	ra,28(sp)
80002164:	afbe0018 	sw	s8,24(sp)
80002168:	03a0f021 	move	s8,sp
8000216c:	3c028100 	lui	v0,0x8100
80002170:	24440264 	addiu	a0,v0,612
80002174:	0c000100 	jal	80000400 <_putk>
80002178:	00000000 	nop
8000217c:	3c028100 	lui	v0,0x8100
80002180:	24440288 	addiu	a0,v0,648
80002184:	0c000100 	jal	80000400 <_putk>
80002188:	00000000 	nop
8000218c:	3c028100 	lui	v0,0x8100
80002190:	24420290 	addiu	v0,v0,656
80002194:	afc20014 	sw	v0,20(s8)
80002198:	0c00084d 	jal	80002134 <_get_epc>
8000219c:	00000000 	nop
800021a0:	afc20010 	sw	v0,16(s8)
800021a4:	8fc20014 	lw	v0,20(s8)
800021a8:	24420002 	addiu	v0,v0,2
800021ac:	8fc40010 	lw	a0,16(s8)
800021b0:	00402821 	move	a1,v0
800021b4:	0c0001bf 	jal	800006fc <_itoa_hex>
800021b8:	00000000 	nop
800021bc:	8fc40014 	lw	a0,20(s8)
800021c0:	0c000100 	jal	80000400 <_putk>
800021c4:	00000000 	nop
800021c8:	0c000120 	jal	80000480 <_exit>
800021cc:	00000000 	nop

800021d0 <_procnumber>:
800021d0:	27bdfff8 	addiu	sp,sp,-8
800021d4:	afbe0004 	sw	s8,4(sp)
800021d8:	03a0f021 	move	s8,sp
800021dc:	24020001 	li	v0,1
800021e0:	03c0e821 	move	sp,s8
800021e4:	8fbe0004 	lw	s8,4(sp)
800021e8:	27bd0008 	addiu	sp,sp,8
800021ec:	03e00008 	jr	ra
800021f0:	00000000 	nop

Disassembly of section seg_kdata:

81000000 <hexatab.987-0x28>:
81000000:	21210a0a 	addi	at,t1,2570
81000004:	78452021 	0x78452021
81000008:	50207469 	beqzl	at,8101d1b0 <_current_task_array+0x1c9f0>
8100000c:	65636f72 	0x65636f72
81000010:	726f7373 	0x726f7373
81000014:	5f783020 	0x5f783020
81000018:	21205f5f 	addi	zero,t1,24415
8100001c:	000a2121 	0xa2121
	...

81000028 <hexatab.987>:
81000028:	33323130 	andi	s2,t9,0x3130
8100002c:	37363534 	ori	s6,t9,0x3534
81000030:	42413938 	c0	0x413938
81000034:	00004443 	sra	t0,zero,0x11

81000038 <dectab.968>:
81000038:	33323130 	andi	s2,t9,0x3130
8100003c:	37363534 	ori	s6,t9,0x3534
81000040:	00003938 	0x3938

81000044 <_cause_vector>:
81000044:	80000200 	lb	zero,512(zero)
81000048:	80001afc 	lb	zero,6908(zero)
8100004c:	80001afc 	lb	zero,6908(zero)
81000050:	80001afc 	lb	zero,6908(zero)
81000054:	80001b30 	lb	zero,6960(zero)
81000058:	80001b64 	lb	zero,7012(zero)
8100005c:	80001b98 	lb	zero,7064(zero)
81000060:	80001bcc 	lb	zero,7116(zero)
81000064:	800001a0 	lb	zero,416(zero)
81000068:	80001c00 	lb	zero,7168(zero)
8100006c:	80001c34 	lb	zero,7220(zero)
81000070:	80001c68 	lb	zero,7272(zero)
81000074:	80001c9c 	lb	zero,7324(zero)
81000078:	80001afc 	lb	zero,6908(zero)
8100007c:	80001afc 	lb	zero,6908(zero)
81000080:	80001afc 	lb	zero,6908(zero)
81000084:	78450a0a 	0x78450a0a
81000088:	74706563 	jalx	81c1958c <_current_task_array+0xc18dcc>
8100008c:	206e6f69 	addi	t6,v1,28521
81000090:	7473203a 	jalx	81cc80e8 <_current_task_array+0xcc7928>
81000094:	676e6172 	0x676e6172
81000098:	6e752065 	0x6e752065
8100009c:	776f6e6b 	jalx	8dbdb9ac <_tty_get_full+0xbbdb95c>
810000a0:	6163206e 	0x6163206e
810000a4:	0a657375 	j	8995cdd4 <_tty_get_full+0x795cd84>
810000a8:	00000000 	nop
810000ac:	78450a0a 	0x78450a0a
810000b0:	74706563 	jalx	81c1958c <_current_task_array+0xc18dcc>
810000b4:	206e6f69 	addi	t6,v1,28521
810000b8:	6c69203a 	0x6c69203a
810000bc:	6167656c 	0x6167656c
810000c0:	6572206c 	0x6572206c
810000c4:	61206461 	0x61206461
810000c8:	65726464 	0x65726464
810000cc:	0a207373 	j	8881cdcc <_tty_get_full+0x681cd7c>
810000d0:	00000000 	nop
810000d4:	78450a0a 	0x78450a0a
810000d8:	74706563 	jalx	81c1958c <_current_task_array+0xc18dcc>
810000dc:	206e6f69 	addi	t6,v1,28521
810000e0:	6c69203a 	0x6c69203a
810000e4:	6167656c 	0x6167656c
810000e8:	7277206c 	0x7277206c
810000ec:	20657469 	addi	a1,v1,29801
810000f0:	72646461 	0x72646461
810000f4:	0a737365 	j	89cdcd94 <_tty_get_full+0x7cdcd44>
810000f8:	00000000 	nop
810000fc:	78450a0a 	0x78450a0a
81000100:	74706563 	jalx	81c1958c <_current_task_array+0xc18dcc>
81000104:	206e6f69 	addi	t6,v1,28521
81000108:	6e69203a 	0x6e69203a
8100010c:	62207473 	0x62207473
81000110:	65207375 	0x65207375
81000114:	726f7272 	0x726f7272
81000118:	20202020 	addi	zero,at,8224
8100011c:	0a202020 	j	88808080 <_tty_get_full+0x6808030>
81000120:	00000000 	nop
81000124:	78450a0a 	0x78450a0a
81000128:	74706563 	jalx	81c1958c <_current_task_array+0xc18dcc>
8100012c:	206e6f69 	addi	t6,v1,28521
81000130:	6164203a 	0x6164203a
81000134:	62206174 	0x62206174
81000138:	65207375 	0x65207375
8100013c:	726f7272 	0x726f7272
81000140:	20202020 	addi	zero,at,8224
81000144:	0a202020 	j	88808080 <_tty_get_full+0x6808030>
81000148:	00000000 	nop
8100014c:	78450a0a 	0x78450a0a
81000150:	74706563 	jalx	81c1958c <_current_task_array+0xc18dcc>
81000154:	206e6f69 	addi	t6,v1,28521
81000158:	7262203a 	0x7262203a
8100015c:	706b6165 	0x706b6165
81000160:	746e696f 	jalx	81b9a5bc <_current_task_array+0xb99dfc>
81000164:	20202020 	addi	zero,at,8224
81000168:	20202020 	addi	zero,at,8224
8100016c:	0a202020 	j	88808080 <_tty_get_full+0x6808030>
81000170:	00000000 	nop
81000174:	78450a0a 	0x78450a0a
81000178:	74706563 	jalx	81c1958c <_current_task_array+0xc18dcc>
8100017c:	206e6f69 	addi	t6,v1,28521
81000180:	6572203a 	0x6572203a
81000184:	76726573 	jalx	89c995cc <_tty_get_full+0x7c9957c>
81000188:	69206465 	0x69206465
8100018c:	7274736e 	0x7274736e
81000190:	69746375 	0x69746375
81000194:	0a206e6f 	j	8881b9bc <_tty_get_full+0x681b96c>
81000198:	00000000 	nop
8100019c:	78450a0a 	0x78450a0a
810001a0:	74706563 	jalx	81c1958c <_current_task_array+0xc18dcc>
810001a4:	206e6f69 	addi	t6,v1,28521
810001a8:	6c69203a 	0x6c69203a
810001ac:	6167656c 	0x6167656c
810001b0:	6f63206c 	0x6f63206c
810001b4:	636f7270 	0x636f7270
810001b8:	63636120 	0x63636120
810001bc:	0a737365 	j	89cdcd94 <_tty_get_full+0x7cdcd44>
810001c0:	78450a0a 	0x78450a0a
810001c4:	74706563 	jalx	81c1958c <_current_task_array+0xc18dcc>
810001c8:	206e6f69 	addi	t6,v1,28521
810001cc:	7261203a 	0x7261203a
810001d0:	6d687469 	0x6d687469
810001d4:	63697465 	0x63697465
810001d8:	65766f20 	0x65766f20
810001dc:	6f6c6672 	0x6f6c6672
810001e0:	0a202077 	j	888081dc <_tty_get_full+0x680818c>
810001e4:	00000000 	nop
810001e8:	30307830 	andi	s0,at,0x7830
810001ec:	30303030 	andi	s0,at,0x3030
810001f0:	00003030 	tge	zero,zero,0xc0
810001f4:	4350450a 	c0	0x150450a
810001f8:	00203d20 	0x203d20
810001fc:	5241420a 	beql	s2,at,81010a28 <_current_task_array+0x10268>
81000200:	00203d20 	0x203d20
81000204:	5541430a 	bnel	t2,at,81010e30 <_current_task_array+0x10670>
81000208:	3d204553 	0x3d204553
8100020c:	00000020 	add	zero,zero,zero
81000210:	21210a0a 	addi	at,t1,2570
81000214:	65442021 	0x65442021
81000218:	6c756166 	0x6c756166
8100021c:	53492074 	beql	k0,t1,810083f0 <_current_task_array+0x7c30>
81000220:	21212052 	addi	at,t1,8274
81000224:	00000a21 	0xa21
81000228:	21210a0a 	addi	at,t1,2570
8100022c:	6e492021 	0x6e492021
81000230:	72726574 	0x72726574
81000234:	20747075 	addi	s4,v1,28789
81000238:	656d6974 	0x656d6974
8100023c:	65722072 	0x65722072
81000240:	76696563 	jalx	89a5958c <_tty_get_full+0x7a5953c>
81000244:	61206465 	0x61206465
81000248:	79632074 	0x79632074
8100024c:	3a656c63 	xori	a1,s3,0x6c63
81000250:	00000020 	add	zero,zero,zero
81000254:	20202020 	addi	zero,at,8224
81000258:	20202020 	addi	zero,at,8224
8100025c:	00002020 	add	a0,zero,zero
81000260:	00000a0a 	0xa0a
81000264:	21210a0a 	addi	at,t1,2570
81000268:	6e552021 	0x6e552021
8100026c:	69666564 	0x69666564
81000270:	2064656e 	addi	a0,v1,25966
81000274:	74737953 	jalx	81cde54c <_current_task_array+0xcddd8c>
81000278:	43206d65 	c0	0x1206d65
8100027c:	206c6c61 	addi	t4,v1,27745
81000280:	0a212121 	j	88848484 <_tty_get_full+0x6848434>
81000284:	00000000 	nop
81000288:	4350450a 	c0	0x150450a
8100028c:	00203d20 	0x203d20
81000290:	30307830 	andi	s0,at,0x7830
81000294:	30303030 	andi	s0,at,0x3030
81000298:	00003030 	tge	zero,zero,0xc0

8100029c <exc_message_causes>:
8100029c:	81000084 	lb	zero,132(t0)
810002a0:	810000ac 	lb	zero,172(t0)
810002a4:	810000d4 	lb	zero,212(t0)
810002a8:	810000fc 	lb	zero,252(t0)
810002ac:	81000124 	lb	zero,292(t0)
810002b0:	8100014c 	lb	zero,332(t0)
810002b4:	81000174 	lb	zero,372(t0)
810002b8:	8100019c 	lb	zero,412(t0)

810002bc <_interrupt_vector>:
810002bc:	80001d58 	lb	zero,7512(zero)
810002c0:	80001d58 	lb	zero,7512(zero)
810002c4:	80001d58 	lb	zero,7512(zero)
810002c8:	80001d58 	lb	zero,7512(zero)
810002cc:	80001d58 	lb	zero,7512(zero)
810002d0:	80001d58 	lb	zero,7512(zero)
810002d4:	80001d58 	lb	zero,7512(zero)
810002d8:	80001d58 	lb	zero,7512(zero)
810002dc:	80001d58 	lb	zero,7512(zero)
810002e0:	80001d58 	lb	zero,7512(zero)
810002e4:	80001d58 	lb	zero,7512(zero)
810002e8:	80001d58 	lb	zero,7512(zero)
810002ec:	80001d58 	lb	zero,7512(zero)
810002f0:	80001d58 	lb	zero,7512(zero)
810002f4:	80001d58 	lb	zero,7512(zero)
810002f8:	80001d58 	lb	zero,7512(zero)
810002fc:	80001d58 	lb	zero,7512(zero)
81000300:	80001d58 	lb	zero,7512(zero)
81000304:	80001d58 	lb	zero,7512(zero)
81000308:	80001d58 	lb	zero,7512(zero)
8100030c:	80001d58 	lb	zero,7512(zero)
81000310:	80001d58 	lb	zero,7512(zero)
81000314:	80001d58 	lb	zero,7512(zero)
81000318:	80001d58 	lb	zero,7512(zero)
8100031c:	80001d58 	lb	zero,7512(zero)
81000320:	80001d58 	lb	zero,7512(zero)
81000324:	80001d58 	lb	zero,7512(zero)
81000328:	80001d58 	lb	zero,7512(zero)
8100032c:	80001d58 	lb	zero,7512(zero)
81000330:	80001d58 	lb	zero,7512(zero)
81000334:	80001d58 	lb	zero,7512(zero)
81000338:	80001d58 	lb	zero,7512(zero)

8100033c <_syscall_vector>:
8100033c:	80000b08 	lb	zero,2824(zero)
81000340:	80000b34 	lb	zero,2868(zero)
81000344:	80000d14 	lb	zero,3348(zero)
81000348:	80000f80 	lb	zero,3968(zero)
8100034c:	80000b5c 	lb	zero,2908(zero)
81000350:	80000be8 	lb	zero,3048(zero)
81000354:	800011b4 	lb	zero,4532(zero)
81000358:	80001220 	lb	zero,4640(zero)
8100035c:	8000215c 	lb	zero,8540(zero)
81000360:	8000215c 	lb	zero,8540(zero)
81000364:	80000e58 	lb	zero,3672(zero)
81000368:	8000215c 	lb	zero,8540(zero)
8100036c:	8000215c 	lb	zero,8540(zero)
81000370:	800008e8 	lb	zero,2280(zero)
81000374:	80000480 	lb	zero,1152(zero)
81000378:	800021d0 	lb	zero,8656(zero)
8100037c:	80001550 	lb	zero,5456(zero)
81000380:	800015dc 	lb	zero,5596(zero)
81000384:	80001668 	lb	zero,5736(zero)
81000388:	800017b0 	lb	zero,6064(zero)
8100038c:	800018f8 	lb	zero,6392(zero)
81000390:	8000130c 	lb	zero,4876(zero)
81000394:	800013e8 	lb	zero,5096(zero)
81000398:	800014c4 	lb	zero,5316(zero)
8100039c:	80000788 	lb	zero,1928(zero)
810003a0:	80000828 	lb	zero,2088(zero)
810003a4:	8000215c 	lb	zero,8540(zero)
810003a8:	8000215c 	lb	zero,8540(zero)
810003ac:	8000215c 	lb	zero,8540(zero)
810003b0:	8000215c 	lb	zero,8540(zero)
810003b4:	8000215c 	lb	zero,8540(zero)
810003b8:	8000215c 	lb	zero,8540(zero)

810003bc <_task_number_array>:
810003bc:	00000001 	movf	zero,zero,$fcc0

810003c0 <_task_context_array>:
	...

810007c0 <_current_task_array>:
810007c0:	00000000 	nop

Disassembly of section seg_kunc:

82000000 <_barrier_initial_value>:
	...

82000020 <_barrier_count>:
	...

82000040 <_dma_status>:
82000040:	00000000 	nop

82000044 <_dma_busy>:
	...

82000045 <_ioc_status>:
	...

82000046 <_ioc_done>:
	...

82000048 <_ioc_lock>:
82000048:	00000000 	nop

8200004c <_tty_get_buf>:
8200004c:	00000000 	nop

82000050 <_tty_get_full>:
82000050:	00000000 	nop

Disassembly of section .reginfo:

00000000 <.reginfo>:
   0:	3c000400 	lui	zero,0x400
	...

Disassembly of section .pdr:

00000000 <.pdr>:
   0:	80000400 	lb	zero,1024(zero)
   4:	c0000000 	ll	zero,0(zero)
   8:	fffffffc 	sdc3	$31,-4(ra)
	...
  14:	00000020 	add	zero,zero,zero
  18:	0000001e 	0x1e
  1c:	0000001f 	0x1f
  20:	80000480 	lb	zero,1152(zero)
  24:	c0000000 	ll	zero,0(zero)
  28:	fffffffc 	sdc3	$31,-4(ra)
	...
  34:	00000048 	0x48
  38:	0000001e 	0x1e
  3c:	0000001f 	0x1f
  40:	8000057c 	lb	zero,1404(zero)
  44:	40000000 	mfc0	zero,c0_index
  48:	fffffffc 	sdc3	$31,-4(ra)
	...
  54:	00000018 	mult	zero,zero
  58:	0000001e 	0x1e
  5c:	0000001f 	0x1f
  60:	80000604 	lb	zero,1540(zero)
  64:	40000000 	mfc0	zero,c0_index
  68:	fffffffc 	sdc3	$31,-4(ra)
	...
  74:	00000010 	mfhi	zero
  78:	0000001e 	0x1e
  7c:	0000001f 	0x1f
  80:	800006fc 	lb	zero,1788(zero)
  84:	40000000 	mfc0	zero,c0_index
  88:	fffffffc 	sdc3	$31,-4(ra)
	...
  94:	00000010 	mfhi	zero
  98:	0000001e 	0x1e
  9c:	0000001f 	0x1f
  a0:	80000788 	lb	zero,1928(zero)
  a4:	40000000 	mfc0	zero,c0_index
  a8:	fffffffc 	sdc3	$31,-4(ra)
	...
  b4:	00000010 	mfhi	zero
  b8:	0000001e 	0x1e
  bc:	0000001f 	0x1f
  c0:	80000828 	lb	zero,2088(zero)
  c4:	40000000 	mfc0	zero,c0_index
  c8:	fffffffc 	sdc3	$31,-4(ra)
	...
  d4:	00000018 	mult	zero,zero
  d8:	0000001e 	0x1e
  dc:	0000001f 	0x1f
  e0:	800008e8 	lb	zero,2280(zero)
  e4:	c0000000 	ll	zero,0(zero)
  e8:	fffffffc 	sdc3	$31,-4(ra)
	...
  f4:	00000028 	0x28
  f8:	0000001e 	0x1e
  fc:	0000001f 	0x1f
 100:	800009fc 	lb	zero,2556(zero)
 104:	40000000 	mfc0	zero,c0_index
 108:	fffffffc 	sdc3	$31,-4(ra)
	...
 114:	00000018 	mult	zero,zero
 118:	0000001e 	0x1e
 11c:	0000001f 	0x1f
 120:	80000b08 	lb	zero,2824(zero)
 124:	40000000 	mfc0	zero,c0_index
 128:	fffffffc 	sdc3	$31,-4(ra)
	...
 134:	00000010 	mfhi	zero
 138:	0000001e 	0x1e
 13c:	0000001f 	0x1f
 140:	80000b34 	lb	zero,2868(zero)
 144:	40000000 	mfc0	zero,c0_index
 148:	fffffffc 	sdc3	$31,-4(ra)
	...
 154:	00000010 	mfhi	zero
 158:	0000001e 	0x1e
 15c:	0000001f 	0x1f
 160:	80000b5c 	lb	zero,2908(zero)
 164:	c0000000 	ll	zero,0(zero)
 168:	fffffffc 	sdc3	$31,-4(ra)
	...
 174:	00000020 	add	zero,zero,zero
 178:	0000001e 	0x1e
 17c:	0000001f 	0x1f
 180:	80000be8 	lb	zero,3048(zero)
 184:	c0000000 	ll	zero,0(zero)
 188:	fffffffc 	sdc3	$31,-4(ra)
	...
 194:	00000020 	add	zero,zero,zero
 198:	0000001e 	0x1e
 19c:	0000001f 	0x1f
 1a0:	80000c78 	lb	zero,3192(zero)
 1a4:	40000000 	mfc0	zero,c0_index
 1a8:	fffffffc 	sdc3	$31,-4(ra)
	...
 1b4:	00000008 	jr	zero
 1b8:	0000001e 	0x1e
 1bc:	0000001f 	0x1f
 1c0:	80000d14 	lb	zero,3348(zero)
 1c4:	c0000000 	ll	zero,0(zero)
 1c8:	fffffffc 	sdc3	$31,-4(ra)
	...
 1d4:	00000030 	tge	zero,zero
 1d8:	0000001e 	0x1e
 1dc:	0000001f 	0x1f
 1e0:	80000e58 	lb	zero,3672(zero)
 1e4:	c0000000 	ll	zero,0(zero)
 1e8:	fffffffc 	sdc3	$31,-4(ra)
	...
 1f4:	00000028 	0x28
 1f8:	0000001e 	0x1e
 1fc:	0000001f 	0x1f
 200:	80000f80 	lb	zero,3968(zero)
 204:	c0000000 	ll	zero,0(zero)
 208:	fffffffc 	sdc3	$31,-4(ra)
	...
 214:	00000028 	0x28
 218:	0000001e 	0x1e
 21c:	0000001f 	0x1f
 220:	80001098 	lb	zero,4248(zero)
 224:	c0000000 	ll	zero,0(zero)
 228:	fffffffc 	sdc3	$31,-4(ra)
	...
 234:	00000020 	add	zero,zero,zero
 238:	0000001e 	0x1e
 23c:	0000001f 	0x1f
 240:	80001124 	lb	zero,4388(zero)
 244:	c0000000 	ll	zero,0(zero)
 248:	fffffffc 	sdc3	$31,-4(ra)
	...
 254:	00000020 	add	zero,zero,zero
 258:	0000001e 	0x1e
 25c:	0000001f 	0x1f
 260:	800011b4 	lb	zero,4532(zero)
 264:	40000000 	mfc0	zero,c0_index
 268:	fffffffc 	sdc3	$31,-4(ra)
	...
 274:	00000010 	mfhi	zero
 278:	0000001e 	0x1e
 27c:	0000001f 	0x1f
 280:	80001220 	lb	zero,4640(zero)
 284:	40000000 	mfc0	zero,c0_index
 288:	fffffffc 	sdc3	$31,-4(ra)
	...
 294:	00000010 	mfhi	zero
 298:	0000001e 	0x1e
 29c:	0000001f 	0x1f
 2a0:	80001290 	lb	zero,4752(zero)
 2a4:	c0030000 	ll	v1,0(zero)
 2a8:	fffffffc 	sdc3	$31,-4(ra)
	...
 2b4:	00000020 	add	zero,zero,zero
 2b8:	0000001e 	0x1e
 2bc:	0000001f 	0x1f
 2c0:	8000130c 	lb	zero,4876(zero)
 2c4:	c0000000 	ll	zero,0(zero)
 2c8:	fffffffc 	sdc3	$31,-4(ra)
	...
 2d4:	00000020 	add	zero,zero,zero
 2d8:	0000001e 	0x1e
 2dc:	0000001f 	0x1f
 2e0:	800013e8 	lb	zero,5096(zero)
 2e4:	c0000000 	ll	zero,0(zero)
 2e8:	fffffffc 	sdc3	$31,-4(ra)
	...
 2f4:	00000020 	add	zero,zero,zero
 2f8:	0000001e 	0x1e
 2fc:	0000001f 	0x1f
 300:	800014c4 	lb	zero,5316(zero)
 304:	40000000 	mfc0	zero,c0_index
 308:	fffffffc 	sdc3	$31,-4(ra)
	...
 314:	00000010 	mfhi	zero
 318:	0000001e 	0x1e
 31c:	0000001f 	0x1f
 320:	80001550 	lb	zero,5456(zero)
 324:	c0000000 	ll	zero,0(zero)
 328:	fffffffc 	sdc3	$31,-4(ra)
	...
 334:	00000020 	add	zero,zero,zero
 338:	0000001e 	0x1e
 33c:	0000001f 	0x1f
 340:	800015dc 	lb	zero,5596(zero)
 344:	c0000000 	ll	zero,0(zero)
 348:	fffffffc 	sdc3	$31,-4(ra)
	...
 354:	00000020 	add	zero,zero,zero
 358:	0000001e 	0x1e
 35c:	0000001f 	0x1f
 360:	80001668 	lb	zero,5736(zero)
 364:	c0000000 	ll	zero,0(zero)
 368:	fffffffc 	sdc3	$31,-4(ra)
	...
 374:	00000030 	tge	zero,zero
 378:	0000001e 	0x1e
 37c:	0000001f 	0x1f
 380:	800017b0 	lb	zero,6064(zero)
 384:	c0000000 	ll	zero,0(zero)
 388:	fffffffc 	sdc3	$31,-4(ra)
	...
 394:	00000030 	tge	zero,zero
 398:	0000001e 	0x1e
 39c:	0000001f 	0x1f
 3a0:	800018f8 	lb	zero,6392(zero)
 3a4:	c0000000 	ll	zero,0(zero)
 3a8:	fffffffc 	sdc3	$31,-4(ra)
	...
 3b4:	00000020 	add	zero,zero,zero
 3b8:	0000001e 	0x1e
 3bc:	0000001f 	0x1f
 3c0:	80001978 	lb	zero,6520(zero)
 3c4:	40000000 	mfc0	zero,c0_index
 3c8:	fffffffc 	sdc3	$31,-4(ra)
	...
 3d4:	00000010 	mfhi	zero
 3d8:	0000001e 	0x1e
 3dc:	0000001f 	0x1f
 3e0:	800019a0 	lb	zero,6560(zero)
 3e4:	40000000 	mfc0	zero,c0_index
 3e8:	fffffffc 	sdc3	$31,-4(ra)
	...
 3f4:	00000010 	mfhi	zero
 3f8:	0000001e 	0x1e
 3fc:	0000001f 	0x1f
 400:	800019c8 	lb	zero,6600(zero)
 404:	40000000 	mfc0	zero,c0_index
 408:	fffffffc 	sdc3	$31,-4(ra)
	...
 414:	00000010 	mfhi	zero
 418:	0000001e 	0x1e
 41c:	0000001f 	0x1f
 420:	800019f0 	lb	zero,6640(zero)
 424:	c0000000 	ll	zero,0(zero)
 428:	fffffffc 	sdc3	$31,-4(ra)
	...
 434:	00000028 	0x28
 438:	0000001e 	0x1e
 43c:	0000001f 	0x1f
 440:	80001afc 	lb	zero,6908(zero)
 444:	c0000000 	ll	zero,0(zero)
 448:	fffffffc 	sdc3	$31,-4(ra)
	...
 454:	00000018 	mult	zero,zero
 458:	0000001e 	0x1e
 45c:	0000001f 	0x1f
 460:	80001b30 	lb	zero,6960(zero)
 464:	c0000000 	ll	zero,0(zero)
 468:	fffffffc 	sdc3	$31,-4(ra)
	...
 474:	00000018 	mult	zero,zero
 478:	0000001e 	0x1e
 47c:	0000001f 	0x1f
 480:	80001b64 	lb	zero,7012(zero)
 484:	c0000000 	ll	zero,0(zero)
 488:	fffffffc 	sdc3	$31,-4(ra)
	...
 494:	00000018 	mult	zero,zero
 498:	0000001e 	0x1e
 49c:	0000001f 	0x1f
 4a0:	80001b98 	lb	zero,7064(zero)
 4a4:	c0000000 	ll	zero,0(zero)
 4a8:	fffffffc 	sdc3	$31,-4(ra)
	...
 4b4:	00000018 	mult	zero,zero
 4b8:	0000001e 	0x1e
 4bc:	0000001f 	0x1f
 4c0:	80001bcc 	lb	zero,7116(zero)
 4c4:	c0000000 	ll	zero,0(zero)
 4c8:	fffffffc 	sdc3	$31,-4(ra)
	...
 4d4:	00000018 	mult	zero,zero
 4d8:	0000001e 	0x1e
 4dc:	0000001f 	0x1f
 4e0:	80001c00 	lb	zero,7168(zero)
 4e4:	c0000000 	ll	zero,0(zero)
 4e8:	fffffffc 	sdc3	$31,-4(ra)
	...
 4f4:	00000018 	mult	zero,zero
 4f8:	0000001e 	0x1e
 4fc:	0000001f 	0x1f
 500:	80001c34 	lb	zero,7220(zero)
 504:	c0000000 	ll	zero,0(zero)
 508:	fffffffc 	sdc3	$31,-4(ra)
	...
 514:	00000018 	mult	zero,zero
 518:	0000001e 	0x1e
 51c:	0000001f 	0x1f
 520:	80001c68 	lb	zero,7272(zero)
 524:	c0000000 	ll	zero,0(zero)
 528:	fffffffc 	sdc3	$31,-4(ra)
	...
 534:	00000018 	mult	zero,zero
 538:	0000001e 	0x1e
 53c:	0000001f 	0x1f
 540:	80001c9c 	lb	zero,7324(zero)
 544:	c0000000 	ll	zero,0(zero)
 548:	fffffffc 	sdc3	$31,-4(ra)
	...
 554:	00000018 	mult	zero,zero
 558:	0000001e 	0x1e
 55c:	0000001f 	0x1f
 560:	80001cd0 	lb	zero,7376(zero)
 564:	c0000000 	ll	zero,0(zero)
 568:	fffffffc 	sdc3	$31,-4(ra)
	...
 574:	00000020 	add	zero,zero,zero
 578:	0000001e 	0x1e
 57c:	0000001f 	0x1f
 580:	80001d58 	lb	zero,7512(zero)
 584:	c0000000 	ll	zero,0(zero)
 588:	fffffffc 	sdc3	$31,-4(ra)
	...
 594:	00000018 	mult	zero,zero
 598:	0000001e 	0x1e
 59c:	0000001f 	0x1f
 5a0:	80001d90 	lb	zero,7568(zero)
 5a4:	c0000000 	ll	zero,0(zero)
 5a8:	fffffffc 	sdc3	$31,-4(ra)
	...
 5b4:	00000020 	add	zero,zero,zero
 5b8:	0000001e 	0x1e
 5bc:	0000001f 	0x1f
 5c0:	80001e20 	lb	zero,7712(zero)
 5c4:	40000000 	mfc0	zero,c0_index
 5c8:	fffffffc 	sdc3	$31,-4(ra)
	...
 5d4:	00000010 	mfhi	zero
 5d8:	0000001e 	0x1e
 5dc:	0000001f 	0x1f
 5e0:	80001e70 	lb	zero,7792(zero)
 5e4:	c0000000 	ll	zero,0(zero)
 5e8:	fffffffc 	sdc3	$31,-4(ra)
	...
 5f4:	00000028 	0x28
 5f8:	0000001e 	0x1e
 5fc:	0000001f 	0x1f
 600:	80001f20 	lb	zero,7968(zero)
 604:	c0000000 	ll	zero,0(zero)
 608:	fffffffc 	sdc3	$31,-4(ra)
	...
 614:	00000028 	0x28
 618:	0000001e 	0x1e
 61c:	0000001f 	0x1f
 620:	80001fd0 	lb	zero,8144(zero)
 624:	c0000000 	ll	zero,0(zero)
 628:	fffffffc 	sdc3	$31,-4(ra)
	...
 634:	00000018 	mult	zero,zero
 638:	0000001e 	0x1e
 63c:	0000001f 	0x1f
 640:	80002004 	lb	zero,8196(zero)
 644:	c0000000 	ll	zero,0(zero)
 648:	fffffffc 	sdc3	$31,-4(ra)
	...
 654:	00000018 	mult	zero,zero
 658:	0000001e 	0x1e
 65c:	0000001f 	0x1f
 660:	80002038 	lb	zero,8248(zero)
 664:	c0000000 	ll	zero,0(zero)
 668:	fffffffc 	sdc3	$31,-4(ra)
	...
 674:	00000018 	mult	zero,zero
 678:	0000001e 	0x1e
 67c:	0000001f 	0x1f
 680:	8000206c 	lb	zero,8300(zero)
 684:	c0000000 	ll	zero,0(zero)
 688:	fffffffc 	sdc3	$31,-4(ra)
	...
 694:	00000018 	mult	zero,zero
 698:	0000001e 	0x1e
 69c:	0000001f 	0x1f
 6a0:	800020a0 	lb	zero,8352(zero)
 6a4:	c0000000 	ll	zero,0(zero)
 6a8:	fffffffc 	sdc3	$31,-4(ra)
	...
 6b4:	00000018 	mult	zero,zero
 6b8:	0000001e 	0x1e
 6bc:	0000001f 	0x1f
 6c0:	800020d4 	lb	zero,8404(zero)
 6c4:	c0000000 	ll	zero,0(zero)
 6c8:	fffffffc 	sdc3	$31,-4(ra)
	...
 6d4:	00000020 	add	zero,zero,zero
 6d8:	0000001e 	0x1e
 6dc:	0000001f 	0x1f
 6e0:	80002134 	lb	zero,8500(zero)
 6e4:	40000000 	mfc0	zero,c0_index
 6e8:	fffffffc 	sdc3	$31,-4(ra)
	...
 6f4:	00000010 	mfhi	zero
 6f8:	0000001e 	0x1e
 6fc:	0000001f 	0x1f
 700:	8000215c 	lb	zero,8540(zero)
 704:	c0000000 	ll	zero,0(zero)
 708:	fffffffc 	sdc3	$31,-4(ra)
	...
 714:	00000020 	add	zero,zero,zero
 718:	0000001e 	0x1e
 71c:	0000001f 	0x1f
 720:	800021d0 	lb	zero,8656(zero)
 724:	40000000 	mfc0	zero,c0_index
 728:	fffffffc 	sdc3	$31,-4(ra)
	...
 734:	00000008 	jr	zero
 738:	0000001e 	0x1e
 73c:	0000001f 	0x1f

Disassembly of section .comment:

00000000 <.comment>:
   0:	3a434347 	xori	v1,s2,0x4347
   4:	4e472820 	c3	0x472820
   8:	34202955 	ori	zero,at,0x2955
   c:	342e342e 	ori	t6,at,0x342e
	...

Disassembly of section .gnu.attributes:

00000000 <.gnu.attributes>:
   0:	00000f41 	0xf41
   4:	756e6700 	jalx	5b99c00 <seg_code_base+0x5799c00>
   8:	00070100 	sll	zero,a3,0x4
   c:	01040000 	0x1040000
